(dp0
S'+'
p1
((lp2
(lp3
I1
aI1
aF0.14623139763227275
aI1
aF0.6264764452700349
aI1
aI1
aI0
aI0
aI600
aI1
aI0
aI0
aI0
aI0
aI0
aI0
aI0
aI0
aI0
aI0
aI0
aI0
aI0
aI0
aI0
aI0
aI0
aI0
aI0
aI0
aI0
aI0
aI0
aI0
aI0
aI0
aI0
aI0
aI0
aI0
aI0
aI0
aI0
aI0
aI0
aa(lp4
I1
aI1
aF0.17393829957055215
aI0
aF0.3000986344609609
aF0.17417843002138775
aI1
aI0
aI0
aI600
aI0
aI0
aI0
aI0
aI0
aI0
aI0
aI0
aI0
aI0
aI0
aI0
aI0
aI0
aI0
aI0
aI0
aI0
aI0
aI0
aI0
aI0
aI0
aI0
aI0
aI0
aI0
aI0
aI0
aI0
aI0
aI0
aI0
aI0
aI0
aI0
aa(lp5
I1
aI1
aF0.17393829957055215
aI1
aF0.2709217414774352
aI1
aI1
aI0
aI0
aI600
aI0
aI0
aI0
aI1
aI0
aI0
aI0
aI0
aI0
aI0
aI0
aI0
aI0
aI0
aI0
aI0
aI0
aI0
aI0
aI0
aI0
aI0
aI0
aI0
aI0
aI0
aI0
aI0
aI0
aI0
aI0
aI0
aI0
aI0
aI0
aI0
aa(lp6
I1
aI1
aF0.14623139763227275
aF0.26317136141364156
aF0.1283075585112721
aF0.17417843002138775
aI1
aI0
aI0
aI600
aI1
aI0
aI0
aI0
aI0
aI0
aI0
aI0
aI0
aI0
aI0
aI0
aI0
aI0
aI0
aI0
aI0
aI0
aI0
aI0
aI0
aI0
aI1
aI0
aI0
aI0
aI0
aI0
aI0
aI0
aI0
aI0
aI0
aI0
aI0
aI0
aa(lp7
I1
aI1
aI1
aI1
aF0.2709217414774352
aI1
aI1
aI0
aI0
aI600
aI0
aI0
aI0
aI0
aI0
aI0
aI0
aI0
aI0
aI0
aI0
aI0
aI0
aI0
aI0
aI0
aI0
aI0
aI0
aI0
aI0
aI0
aI0
aI0
aI0
aI0
aI0
aI0
aI0
aI0
aI0
aI0
aI0
aI0
aI0
aI0
aa(lp8
I1
aI1
aI1
aI1
aF0.2709217414774352
aI1
aI1
aI0
aI0
aI600
aI0
aI0
aI0
aI0
aI0
aI0
aI0
aI0
aI0
aI0
aI0
aI0
aI0
aI0
aI0
aI0
aI0
aI0
aI0
aI0
aI0
aI0
aI0
aI0
aI0
aI0
aI0
aI0
aI0
aI0
aI0
aI0
aI0
aI0
aI0
aI0
aa(lp9
I1
aI1
aF0.17393829957055215
aI1
aF0.6264764452700349
aI1
aI1
aI0
aI0
aI600
aI0
aI0
aI0
aI0
aI0
aI0
aI0
aI0
aI0
aI0
aI0
aI0
aI0
aI0
aI0
aI0
aI0
aI0
aI0
aI0
aI0
aI0
aI0
aI0
aI0
aI0
aI0
aI0
aI0
aI0
aI0
aI0
aI0
aI0
aI0
aI0
aa(lp10
I1
aF1e-300
aI1
aI0
aF0.07796333216797775
aI0
aI1
aI0
aI0
aI600
aI0
aI0
aI0
aI0
aI0
aI0
aI0
aI0
aI0
aI0
aI0
aI0
aI0
aI0
aI0
aI0
aI0
aI0
aI0
aI0
aI0
aI0
aI0
aI0
aI0
aI0
aI0
aI0
aI0
aI0
aI0
aI0
aI0
aI0
aI0
aI0
aa(lp11
I1
aF0.23058976593992853
aF0.16133424034626279
aI1
aI0
aI1
aI1
aI0
aI0
aI600
aI0
aI0
aI0
aI0
aI0
aI0
aI0
aI0
aI0
aI0
aI0
aI0
aI0
aI0
aI0
aI0
aI0
aI0
aI0
aI0
aI0
aI0
aI0
aI0
aI0
aI0
aI0
aI0
aI0
aI0
aI0
aI0
aI0
aI0
aI0
aI0
aa(lp12
I1
aI1
aF0.17393829957055215
aI1
aF0.13404407351310227
aI1
aI1
aI0
aI0
aI600
aI0
aI0
aI0
aI0
aI0
aI0
aI0
aI0
aI0
aI0
aI0
aI0
aI0
aI0
aI0
aI0
aI0
aI0
aI0
aI0
aI0
aI0
aI0
aI0
aI0
aI0
aI0
aI0
aI0
aI0
aI0
aI0
aI0
aI0
aI0
aI0
aa(lp13
I1
aI1
aI1
aI1
aF0.2709217414774352
aI1
aI1
aI0
aI0
aI600
aI0
aI0
aI0
aI0
aI0
aI0
aI0
aI0
aI0
aI0
aI0
aI0
aI0
aI0
aI0
aI0
aI0
aI0
aI0
aI0
aI0
aI0
aI0
aI0
aI0
aI0
aI0
aI0
aI0
aI0
aI0
aI0
aI0
aI0
aI0
aI0
aa(lp14
I1
aI1
aF0.17393829957055215
aI1
aF0.1405027412693133
aI1
aI1
aI0
aI0
aI600
aI0
aI0
aI0
aI0
aI0
aI0
aI0
aI0
aI0
aI0
aI0
aI0
aI0
aI0
aI0
aI0
aI0
aI0
aI0
aI0
aI0
aI0
aI0
aI0
aI0
aI0
aI0
aI0
aI0
aI0
aI0
aI0
aI0
aI0
aI0
aI0
aa(lp15
I1
aI1
aF0.17393829957055215
aF0.28167468250923683
aF0.1892211464008919
aI0
aI1
aI0
aI0
aI600
aI0
aI0
aI0
aI0
aI0
aI0
aI0
aI0
aI0
aI0
aI0
aI0
aI0
aI0
aI0
aI0
aI0
aI0
aI0
aI0
aI0
aI0
aI0
aI0
aI0
aI0
aI0
aI0
aI0
aI0
aI0
aI0
aI0
aI0
aI0
aI0
aa(lp16
I1
aI1
aI1
aI1
aF0.1892211464008919
aI1
aI1
aI0
aI0
aI600
aI1
aI0
aI0
aI0
aI0
aI0
aI0
aI0
aI0
aI0
aI0
aI0
aI0
aI0
aI0
aI0
aI0
aI0
aI0
aI0
aI0
aI0
aI0
aI0
aI0
aI0
aI0
aI0
aI0
aI0
aI0
aI0
aI0
aI0
aI0
aI0
aa(lp17
I1
aI1
aF0.17393829957055215
aI1
aF0.27627027514942604
aI1
aI1
aI0
aI0
aI600
aI0
aI0
aI0
aI0
aI0
aI0
aI0
aI0
aI0
aI0
aI0
aI0
aI0
aI0
aI0
aI0
aI0
aI0
aI0
aI0
aI0
aI0
aI0
aI0
aI0
aI0
aI0
aI0
aI0
aI0
aI0
aI0
aI0
aI0
aI0
aI0
aa(lp18
I1
aF0.09400894020119234
aF0.17393829957055215
aI1
aF0.2709217414774352
aI1
aI1
aI0
aI0
aI600
aI0
aI1
aI0
aI0
aI0
aI0
aI0
aI0
aI0
aI0
aI0
aI0
aI0
aI0
aI0
aI0
aI0
aI0
aI0
aI0
aI0
aI0
aI0
aI0
aI0
aI0
aI0
aI0
aI0
aI0
aI0
aI0
aI0
aI0
aI0
aI0
aa(lp19
I1
aI1
aF0.14623139763227275
aI1
aF0.1892211464008919
aI1
aI1
aI0
aI0
aI600
aI0
aI0
aI0
aI0
aI0
aI0
aI0
aI0
aI0
aI0
aI0
aI0
aI0
aI0
aI0
aI0
aI0
aI0
aI0
aI0
aI0
aI0
aI0
aI0
aI0
aI0
aI0
aI0
aI0
aI0
aI0
aI0
aI0
aI0
aI0
aI0
aa(lp20
I1
aI0
aF0.16133424034626279
aI1
aF0.2709217414774352
aI1
aI1
aI0
aI0
aI600
aI0
aI0
aI0
aI0
aI0
aI0
aI0
aI0
aI0
aI0
aI0
aI0
aI0
aI0
aI0
aI0
aI0
aI0
aI0
aI0
aI0
aI0
aI0
aI0
aI0
aI1
aI0
aI0
aI0
aI0
aI0
aI0
aI0
aI0
aI0
aI0
aa(lp21
I1
aF0.555013148927839
aF0.16133424034626279
aI0
aF0.09972554926361525
aI0
aI1
aI0
aI0
aI600
aI0
aI0
aI0
aI0
aI0
aI0
aI0
aI0
aI0
aI0
aI0
aI0
aI0
aI0
aI0
aI0
aI0
aI0
aI0
aI0
aI0
aI0
aI0
aI0
aI0
aI0
aI0
aI0
aI0
aI0
aI0
aI0
aI0
aI0
aI0
aI0
aa(lp22
F0.2709217414774352
aI1
aI1
aI1
aF0.12154946780513323
aI1
aI1
aI0
aI0
aI600
aI0
aI0
aI0
aI0
aI0
aI0
aI0
aI0
aI0
aI0
aI0
aI0
aI0
aI0
aI0
aI0
aI0
aI0
aI0
aI0
aI0
aI0
aI0
aI0
aI0
aI0
aI0
aI0
aI0
aI0
aI0
aI0
aI0
aI0
aI0
aI0
aa(lp23
I1
aI1
aI1
aF0.26317136141364156
aF0.39497064239625734
aF0.17417843002138775
aI1
aI0
aI0
aI600
aI0
aI1
aI0
aI0
aI0
aI0
aI0
aI0
aI0
aI0
aI0
aI0
aI0
aI0
aI0
aI0
aI0
aI0
aI0
aI0
aI0
aI0
aI0
aI0
aI0
aI0
aI0
aI0
aI0
aI0
aI0
aI0
aI0
aI0
aI0
aI0
aa(lp24
I1
aI1
aF0.17393829957055215
aF0.26317136141364156
aF0.234869748029384
aF0.17417843002138775
aI1
aI0
aI0
aI600
aI1
aI0
aI0
aI0
aI0
aI0
aI0
aI0
aI0
aI0
aI0
aI0
aI0
aI0
aI0
aI0
aI0
aI0
aI0
aI0
aI0
aI0
aI0
aI0
aI0
aI0
aI0
aI0
aI0
aI0
aI0
aI0
aI0
aI0
aI0
aI0
aa(lp25
I1
aI1
aI1
aI1
aI1
aI1
aI1
aI0
aI0
aI600
aI0
aI0
aI0
aI0
aI0
aI0
aI0
aI0
aI0
aI0
aI0
aI0
aI0
aI0
aI0
aI0
aI0
aI0
aI0
aI0
aI0
aI0
aI0
aI0
aI0
aI0
aI0
aI0
aI0
aI0
aI0
aI0
aI0
aI0
aI0
aI0
aa(lp26
(lp27
I1
aI0
aF0.17393829957055215
aI1
aF0.6264764452700349
aI1
aI1
aI0
aI0
aI600
aI0
aI0
aI0
aI0
aI0
aI0
aI0
aI0
aI0
aI0
aI0
aI0
aI0
aI0
aI0
aI0
aI0
aI0
aI0
aI0
aI1
aI1
aI0
aI1
aI0
aI0
aI0
aI0
aI0
aI0
aI0
aI0
aI0
aI0
aI0
aI0
aa(lp28
I1
aI1
aF0.14623139763227275
aI1
aF0.15551595633801849
aI1
aI1
aI0
aI0
aI600
aI1
aI0
aI0
aI0
aI0
aI0
aI0
aI0
aI0
aI0
aI0
aI0
aI0
aI0
aI0
aI0
aI0
aI0
aI0
aI0
aI0
aI0
aI0
aI1
aI0
aI0
aI0
aI0
aI0
aI0
aI0
aI0
aI0
aI0
aI0
aI0
aa(lp29
I1
aI1
aF0.17393829957055215
aI1
aI0
aF0.17417843002138775
aI1
aI0
aI0
aI600
aI0
aI1
aI0
aI0
aI0
aI0
aI0
aI0
aI0
aI0
aI0
aI0
aI0
aI0
aI0
aI0
aI0
aI0
aI0
aI0
aI0
aI0
aI0
aI0
aI0
aI0
aI0
aI0
aI0
aI0
aI0
aI0
aI0
aI0
aI0
aI0
aa(lp30
I1
aI1
aI1
aI1
aI0
aI1
aI1
aI0
aI0
aI600
aI0
aI1
aI0
aI0
aI0
aI0
aI0
aI0
aI0
aI0
aI0
aI0
aI0
aI0
aI0
aI0
aI0
aI0
aI0
aI0
aI0
aI0
aI0
aI0
aI0
aI0
aI0
aI0
aI0
aI0
aI0
aI0
aI0
aI0
aI0
aI0
aa(lp31
I1
aI1
aI1
aI1
aI0
aI1
aI1
aI0
aI0
aI600
aI1
aI0
aI0
aI0
aI0
aI0
aI0
aI0
aI0
aI0
aI0
aI0
aI0
aI0
aI0
aI0
aI0
aI0
aI0
aI0
aI0
aI0
aI0
aI0
aI0
aI0
aI0
aI0
aI0
aI0
aI0
aI0
aI0
aI0
aI0
aI0
aa(lp32
I1
aI1
aI1
aI1
aI0
aI1
aI1
aI0
aI0
aI600
aI1
aI0
aI0
aI0
aI0
aI0
aI0
aI0
aI0
aI0
aI0
aI0
aI0
aI0
aI0
aI0
aI0
aI0
aI0
aI0
aI0
aI0
aI0
aI1
aI0
aI0
aI0
aI0
aI0
aI0
aI0
aI0
aI0
aI0
aI0
aI0
aa(lp33
I1
aI1
aI1
aI1
aI0
aI1
aI1
aI0
aI0
aI600
aI0
aI0
aI0
aI0
aI0
aI0
aI0
aI0
aI0
aI0
aI0
aI0
aI0
aI0
aI0
aI0
aI0
aI0
aI0
aI0
aI0
aI0
aI0
aI0
aI0
aI0
aI0
aI0
aI0
aI0
aI0
aI0
aI0
aI0
aI0
aI0
aa(lp34
I1
aI1
aI1
aF0.16557874207576306
aI0
aF0.17417843002138775
aI1
aI0
aI0
aI600
aI0
aI1
aI0
aI0
aI0
aI0
aI0
aI0
aI0
aI0
aI0
aI0
aI0
aI0
aI0
aI0
aI0
aI0
aI0
aI0
aI0
aI0
aI0
aI0
aI0
aI0
aI0
aI0
aI0
aI0
aI0
aI0
aI0
aI0
aI0
aI0
aa(lp35
I1
aI1
aF0.17393829957055215
aI1
aF0.555013148927839
aI1
aI1
aI0
aI0
aI600
aI0
aI0
aI0
aI0
aI0
aI0
aI0
aI0
aI0
aI1
aI0
aI0
aI0
aI0
aI0
aI0
aI0
aI0
aI0
aI0
aI0
aI1
aI0
aI0
aI0
aI0
aI0
aI0
aI0
aI0
aI0
aI0
aI0
aI0
aI0
aI0
aa(lp36
I1
aI1
aI1
aI1
aF0.6264764452700349
aI1
aI1
aI0
aI0
aI600
aI0
aI0
aI0
aI0
aI0
aI0
aI0
aI0
aI0
aI0
aI0
aI0
aI0
aI0
aI0
aI0
aI0
aI0
aI0
aI0
aI1
aI1
aI0
aI1
aI0
aI0
aI0
aI0
aI0
aI0
aI0
aI0
aI0
aI0
aI0
aI0
aa(lp37
I1
aI1
aF0.17393829957055215
aI0
aI0
aI0
aI1
aI0
aI0
aI600
aI0
aI0
aI0
aI0
aI0
aI0
aI0
aI0
aI0
aI0
aI0
aI0
aI0
aI0
aI0
aI0
aI0
aI0
aI0
aI0
aI0
aI0
aI0
aI0
aI0
aI0
aI0
aI0
aI0
aI0
aI0
aI0
aI0
aI0
aI0
aI0
aa(lp38
I1
aI1
aI1
aF0.2028833327579083
aF0.29998092927617304
aI0
aI1
aI0
aI0
aI600
aI0
aI0
aI0
aI0
aI0
aI0
aI0
aI0
aI0
aI0
aI0
aI0
aI0
aI0
aI0
aI0
aI0
aI0
aI0
aI0
aI0
aI0
aI0
aI1
aI0
aI0
aI0
aI0
aI0
aI0
aI0
aI0
aI0
aI0
aI0
aI0
aa(lp39
I1
aI1
aI1
aI1
aI1
aI1
aI1
aI0
aI0
aI600
aI0
aI0
aI0
aI0
aI0
aI0
aI0
aI0
aI0
aI0
aI0
aI0
aI0
aI0
aI0
aI0
aI0
aI0
aI0
aI0
aI0
aI0
aI0
aI0
aI0
aI0
aI0
aI0
aI0
aI0
aI0
aI0
aI0
aI0
aI0
aI0
aa(lp40
I1
aI0
aI1
aI1
aF0.29998092927617304
aI1
aI1
aI0
aI0
aI600
aI0
aI0
aI0
aI0
aI0
aI0
aI0
aI0
aI0
aI0
aI0
aI0
aI0
aI0
aI0
aI0
aI0
aI0
aI0
aI0
aI0
aI0
aI0
aI1
aI0
aI0
aI0
aI0
aI0
aI0
aI0
aI0
aI0
aI0
aI0
aI0
aa(lp41
I1
aF0.555013148927839
aI1
aF0.15779967308059284
aI0
aI0
aI1
aI0
aI0
aI600
aI0
aI0
aI0
aI0
aI0
aI0
aI0
aI0
aI0
aI0
aI0
aI0
aI0
aI0
aI0
aI0
aI0
aI0
aI0
aI0
aI0
aI0
aI0
aI0
aI0
aI0
aI0
aI0
aI0
aI0
aI0
aI0
aI0
aI0
aI0
aI0
aa(lp42
I1
aI1
aI1
aI1
aF0.555013148927839
aI1
aI1
aI0
aI0
aI600
aI0
aI0
aI0
aI0
aI0
aI0
aI0
aI0
aI0
aI0
aI0
aI0
aI0
aI0
aI0
aI0
aI0
aI0
aI0
aI0
aI0
aI0
aI0
aI1
aI0
aI0
aI0
aI0
aI0
aI0
aI0
aI0
aI0
aI0
aI0
aI0
aa(lp43
I1
aI0
aI1
aI1
aF0.39497064239625734
aI1
aI1
aI0
aI0
aI600
aI0
aI0
aI0
aI0
aI0
aI0
aI0
aI0
aI0
aI0
aI0
aI0
aI0
aI0
aI0
aI0
aI0
aI0
aI0
aI0
aI0
aI0
aI0
aI1
aI0
aI0
aI0
aI0
aI0
aI0
aI0
aI0
aI0
aI0
aI0
aI0
aa(lp44
I1
aI0
aI1
aI1
aF0.12996240609844528
aI1
aI1
aI0
aI0
aI600
aI0
aI0
aI0
aI0
aI0
aI0
aI0
aI0
aI0
aI0
aI0
aI0
aI0
aI0
aI0
aI0
aI0
aI0
aI0
aI0
aI0
aI0
aI0
aI1
aI0
aI0
aI0
aI0
aI0
aI0
aI0
aI0
aI0
aI0
aI0
aI0
aa(lp45
I1
aI1
aF0.17393829957055215
aI1
aF0.2709217414774352
aI1
aI1
aI0
aI0
aI600
aI0
aI0
aI0
aI0
aI1
aI1
aI0
aI0
aI0
aI0
aI0
aI0
aI0
aI0
aI0
aI0
aI0
aI0
aI0
aI0
aI0
aI0
aI0
aI0
aI0
aI0
aI0
aI0
aI0
aI0
aI0
aI0
aI0
aI0
aI1
aI0
aa(lp46
I1
aI1
aI1
aF0.19587082446504103
aI0
aF0.17417843002138775
aI1
aI0
aI0
aI600
aI1
aI0
aI0
aI0
aI0
aI0
aI0
aI0
aI0
aI0
aI0
aI0
aI0
aI0
aI0
aI0
aI0
aI0
aI0
aI0
aI0
aI0
aI0
aI1
aI0
aI0
aI0
aI0
aI0
aI0
aI0
aI0
aI0
aI0
aI0
aI0
aa(lp47
I1
aI0
aI1
aI1
aF0.234869748029384
aI1
aI1
aI0
aI0
aI600
aI0
aI0
aI0
aI0
aI0
aI0
aI0
aI0
aI0
aI0
aI0
aI0
aI0
aI0
aI0
aI0
aI0
aI0
aI0
aI0
aI0
aI0
aI0
aI0
aI0
aI0
aI0
aI0
aI0
aI0
aI0
aI0
aI0
aI0
aI0
aI0
aa(lp48
I1
aI1
aI1
aF0.26317136141364156
aF0.39497064239625734
aF0.17417843002138775
aI1
aI0
aI0
aI600
aI1
aI0
aI0
aI0
aI0
aI0
aI0
aI0
aI0
aI0
aI0
aI0
aI0
aI0
aI0
aI0
aI0
aI0
aI0
aI0
aI0
aI0
aI0
aI1
aI0
aI0
aI0
aI0
aI0
aI0
aI0
aI0
aI0
aI0
aI0
aI0
aa(lp49
I1
aI1
aF0.17393829957055215
aF0.28136387185230444
aI0
aI0
aI1
aI0
aI0
aI600
aI0
aI0
aI0
aI0
aI0
aI0
aI0
aI0
aI0
aI0
aI0
aI0
aI0
aI0
aI0
aI0
aI0
aI0
aI0
aI0
aI0
aI0
aI0
aI0
aI0
aI0
aI0
aI0
aI0
aI0
aI0
aI0
aI0
aI0
aI0
aI0
aa(lp50
I1
aI1
aI1
aI1
aI0
aI1
aI1
aI0
aI0
aI600
aI0
aI0
aI0
aI0
aI0
aI0
aI0
aI0
aI0
aI0
aI0
aI0
aI0
aI0
aI0
aI0
aI0
aI0
aI0
aI0
aI0
aI0
aI0
aI0
aI0
aI0
aI0
aI0
aI0
aI0
aI0
aI0
aI0
aI0
aI0
aI0
aa(lp51
I1
aF0.09400894020119234
aI1
aI1
aF0.11147856481020386
aI1
aI1
aI0
aI0
aI600
aI0
aI1
aI0
aI0
aI0
aI0
aI0
aI0
aI0
aI0
aI0
aI0
aI0
aI0
aI0
aI0
aI0
aI0
aI0
aI0
aI0
aI0
aI0
aI1
aI0
aI0
aI0
aI0
aI0
aI0
aI0
aI0
aI0
aI0
aI0
aI0
aa(lp52
I1
aI1
aI1
aI1
aI1
aI1
aI1
aI0
aI0
aI600
aI1
aI0
aI0
aI0
aI0
aI0
aI0
aI0
aI0
aI0
aI0
aI0
aI0
aI0
aI0
aI0
aI0
aI0
aI0
aI0
aI0
aI0
aI0
aI1
aI0
aI0
aI0
aI0
aI0
aI0
aI0
aI0
aI0
aI0
aI0
aI0
aa(lp53
I1
aI1
aI1
aF0.28136387185230444
aI0
aI0
aI1
aI0
aI0
aI600
aI0
aI0
aI0
aI0
aI0
aI0
aI0
aI0
aI0
aI0
aI0
aI0
aI0
aI0
aI0
aI0
aI0
aI0
aI0
aI0
aI0
aI0
aI0
aI0
aI0
aI0
aI0
aI0
aI0
aI0
aI0
aI0
aI0
aI0
aI0
aI0
aa(lp54
VEllen went to a garage sale to buy chairs. Each chair cost 15 dollars. How much money did Ellen spend for the 12 chairs she bought?\u000a
p55
aVThree-toed sloths have 4 legs. How many toes would 25 sloths have?\u000a
p56
aVAlbert has two snakes. The garden snake is 10 inches long. The boaconstrictor is 7 times longer than the garden snake. How long is the boaconstrictor?\u000a
p57
aVAlbert\ufffd\ufffd\ufffds cabbage patch has 12 rows of cabbage. In each row, there are 15 heads of cabbage. How many heads of cabbage does Albert have in all?\u000a
p58
aVMarie can bike at a speed of 12 miles an hour. How far can she bike in 31 hours?\u000a
p59
aVTammy drove 55 miles in one hour. At that rate, how far can she drive in 36 hours?\u000a
p60
aVJeff swims 20 laps every day. How many laps will he swim in 6 7 dayss?\u000a
p61
aVIt takes 4 apples to make 1 pie. How many apples does it take to make 504 pies?\u000a
p62
aVFrank worked 8 hours on the first 4 days of the 7 days. How many hours did he work in these 4 days?\u000a
p63
aVSue\ufffd\ufffd\ufffds family went on vacation. Her mom drove the car at 60 mph. They camped at a campground after traveling for 5 hours. How far was the campground from their home?\u000a
p64
aVBrett drove 55 miles every hour. How many miles would he drive in 8 hours?\u000a
p65
aVA perfect score is 21 points. How many points would you have after 3 perfect games in a row?\u000a
p66
aVBrian\ufffd\ufffd\ufffds car gets 20 miles per gallon. On his last trip, he used 3 gallons of gas. How many miles did he travel on his last trip?\u000a
p67
aVEach cup contains 8 ounces. How many ounces are in 33 cups?\u000a
p68
aVA chocolate chip cookie recipe calls for 2 cups of chocolate chips. You want to make 23 recipes for a bake sale. How many cups of chocolate chips will be needed to make all the cookie recipes?\u000a
p69
aVI have a pet golden retriever. Each year he gains 11 pounds. He is 8 years old. How many pounds does he weigh?\u000a
p70
aVMary\ufffd\ufffd\ufffds car gets 20 miles per gallon of gas. How far can she drive on 14 gallons of gas?\u000a
p71
aVI walked 2 miles in 1 hour for Relay for Life. If I maintained this pace for the 8 hours I walk, how many miles total will I walk?\u000a
p72
aVI walk 1 mile every 15 minutes. I walked 3 miles. How many minutes did it take me to walk 3 miles?\u000a
p73
aVThere are 365 days in one year. How many days are in 12 years?\u000a
p74
aVLansing has 25 elementary schools. There are 247 students in each school. How many elementary students are there altogether in Lansing?\u000a
p75
aVRobin has 3 packages of gum. There are 18 pieces in each package. How many pieces of gum does Robin have?\u000a
p76
aVArthur baked 115 muffins. James baked 12 times as many. How many muffins did James bake?\u000a
p77
aVYou have 24 cookies and want to share them equally with 6 people. How many cookies would each person get?\u000a
p78
aVYou are reading a book with 120 pages. If you want to read the same number of pages each night, how many would you have to read each night to finish in 10 days?\u000a
p79
aVA cereal box holds 18 cups of cereal. Each serving is 2 cups. How many servings are in the whole box?\u000a
p80
aVA box of books weighs 42 pounds. Each book weights 3 pounds. How many books are there in the box?\u000a
p81
aVSue\ufffd\ufffd\ufffds mother made 75 cookies. She put the cookies in bags, with 3 cookies in each bag. How many bags could she fill up?\u000a
p82
aVAn airplane hangar is 300 feet long. How many planes can fit into it, end to end, if each plane is 40 feet long?\u000a
p83
aVIt takes 3 eggs to make a cake. How many cakes can you make with 37 eggs?\u000a
p84
aV105 people are going to a movie. 6 people can ride in each car. How many cars are needed to get all 105 people to the movie?\u000a
p85
aVMs. Baker has 17 cupcakes. She wants to share them equally among her 3 children so that no one gets more than anyone else. If she gives each child as many cupcakes as possible, how many cupcakes will be left over for Ms. Baker to eat?\u000a
p86
aV89 cookies are being shared equally among 4 people. How many does each person get? \u000a
p87
aVDeborah is running a marathon. She can run 4 miles in an hour. How long will it take her to run 26 miles?\u000a
p88
aV256 students are going to the zoo. They have to be divided into groups so that each teacher has one group. There are 8 teachers. How many students will be in each group?\u000a
p89
aVA fruit farm packs oranges in boxes that hold 10 each. One day it packs 2650 oranges. How many boxes did they use?\u000a
p90
aVYou want to give your baseball cards to your 5 best friends. You have 455 baseball cards. How many would each get, if you share them equally?\u000a
p91
aVMike has 45 dollars in 5 dollar bills.  How many 5 dollars bills does  he have ?\u000a
p92
aVA restaurant sold 63 hamburgers last 7 days. How many hamburgers on average were sold each day ?\u000a
p93
aVDan was at the beach for 5 days and found 36 seashells. He plans to give all of his seashells equally to his 4 friends. How many seashells will each friend get ?\u000a
p94
aVSandy worked 45 hours in the last 5 days. Assuming that she worked the same amount of hours each day, how long did she work each day ?\u000a
p95
aVThere were a total of 27 soccer games during the 3 month season.  If the games are equally divided, how many soccer games are played a month ?\u000a
p96
aVThere are 390 students at a school. If each classroom holds 30 students, how many classrooms are needed at the school?\u000a
p97
aVNancy bought 615 crayons that came in packs of 15.  How many packs of crayons did Nancy buy?\u000a
p98
aVA teacher has 344 pieces of candy. If there are 43 students, and the candy is divided evenly, How many pieces will each student get?\u000a
p99
aVShe counted her crayons and found out that she has 80 crayons which she will place in crayon boxes. Every crayon box can contain 8 crayons. How many crayon boxes does she need?\u000a
p100
aVBeside the pile of clean white paper was a stack of 700 sheets of used paper. She wants to place it in boxes for recycling. If every box can contain 100 sheets, how many boxes does she need?\u000a
p101
aVLexie\ufffd\ufffd\ufffds younger brother helped pick up all the paper clips in Lexie\ufffd\ufffd\ufffds room. He was able to collect 81 paper clips. If he wants to distribute the paper clips in 9 boxes, how many paper clips will each box contain?\u000a
p102
aVWhen relatives visit Haley and her family, she and her cousins do origami. If she has 48 origami papers to give away to her 6 cousins, how many will each receive if she gives everyone the same number of origami papers?\u000a
p103
aVHaley has 63 magazines in her cabinet. She plans to send it to the recycling office in their area. If she places it in boxes which can contain 9 magazines, how many boxes will she use?\u000a
p104
atp105
sS'*'
p106
((lp107
g27
ag28
ag29
ag30
ag31
ag32
ag33
ag34
ag35
ag36
ag37
ag38
ag39
ag40
ag41
ag42
ag43
ag44
ag45
ag46
ag47
ag48
ag49
ag50
ag51
ag52
ag53
a(lp108
g3
ag4
ag5
ag6
ag7
ag8
ag9
ag10
ag11
ag12
ag13
ag14
ag15
ag16
ag17
ag18
ag19
ag20
ag21
ag22
ag23
ag24
ag25
a(lp109
VEllen went to a garage sale to buy chairs. Each chair cost 15 dollars. How much money did Ellen spend for the 12 chairs she bought?\u000a
p110
aVThree-toed sloths have 4 legs. How many toes would 25 sloths have?\u000a
p111
aVAlbert has two snakes. The garden snake is 10 inches long. The boaconstrictor is 7 times longer than the garden snake. How long is the boaconstrictor?\u000a
p112
aVAlbert\ufffd\ufffd\ufffds cabbage patch has 12 rows of cabbage. In each row, there are 15 heads of cabbage. How many heads of cabbage does Albert have in all?\u000a
p113
aVMarie can bike at a speed of 12 miles an hour. How far can she bike in 31 hours?\u000a
p114
aVTammy drove 55 miles in one hour. At that rate, how far can she drive in 36 hours?\u000a
p115
aVJeff swims 20 laps every day. How many laps will he swim in 6 7 dayss?\u000a
p116
aVIt takes 4 apples to make 1 pie. How many apples does it take to make 504 pies?\u000a
p117
aVFrank worked 8 hours on the first 4 days of the 7 days. How many hours did he work in these 4 days?\u000a
p118
aVSue\ufffd\ufffd\ufffds family went on vacation. Her mom drove the car at 60 mph. They camped at a campground after traveling for 5 hours. How far was the campground from their home?\u000a
p119
aVBrett drove 55 miles every hour. How many miles would he drive in 8 hours?\u000a
p120
aVA perfect score is 21 points. How many points would you have after 3 perfect games in a row?\u000a
p121
aVBrian\ufffd\ufffd\ufffds car gets 20 miles per gallon. On his last trip, he used 3 gallons of gas. How many miles did he travel on his last trip?\u000a
p122
aVEach cup contains 8 ounces. How many ounces are in 33 cups?\u000a
p123
aVA chocolate chip cookie recipe calls for 2 cups of chocolate chips. You want to make 23 recipes for a bake sale. How many cups of chocolate chips will be needed to make all the cookie recipes?\u000a
p124
aVI have a pet golden retriever. Each year he gains 11 pounds. He is 8 years old. How many pounds does he weigh?\u000a
p125
aVMary\ufffd\ufffd\ufffds car gets 20 miles per gallon of gas. How far can she drive on 14 gallons of gas?\u000a
p126
aVI walked 2 miles in 1 hour for Relay for Life. If I maintained this pace for the 8 hours I walk, how many miles total will I walk?\u000a
p127
aVI walk 1 mile every 15 minutes. I walked 3 miles. How many minutes did it take me to walk 3 miles?\u000a
p128
aVThere are 365 days in one year. How many days are in 12 years?\u000a
p129
aVLansing has 25 elementary schools. There are 247 students in each school. How many elementary students are there altogether in Lansing?\u000a
p130
aVRobin has 3 packages of gum. There are 18 pieces in each package. How many pieces of gum does Robin have?\u000a
p131
aVArthur baked 115 muffins. James baked 12 times as many. How many muffins did James bake?\u000a
p132
aVYou have 24 cookies and want to share them equally with 6 people. How many cookies would each person get?\u000a
p133
aVYou are reading a book with 120 pages. If you want to read the same number of pages each night, how many would you have to read each night to finish in 10 days?\u000a
p134
aVA cereal box holds 18 cups of cereal. Each serving is 2 cups. How many servings are in the whole box?\u000a
p135
aVA box of books weighs 42 pounds. Each book weights 3 pounds. How many books are there in the box?\u000a
p136
aVSue\ufffd\ufffd\ufffds mother made 75 cookies. She put the cookies in bags, with 3 cookies in each bag. How many bags could she fill up?\u000a
p137
aVAn airplane hangar is 300 feet long. How many planes can fit into it, end to end, if each plane is 40 feet long?\u000a
p138
aVIt takes 3 eggs to make a cake. How many cakes can you make with 37 eggs?\u000a
p139
aV105 people are going to a movie. 6 people can ride in each car. How many cars are needed to get all 105 people to the movie?\u000a
p140
aVMs. Baker has 17 cupcakes. She wants to share them equally among her 3 children so that no one gets more than anyone else. If she gives each child as many cupcakes as possible, how many cupcakes will be left over for Ms. Baker to eat?\u000a
p141
aV89 cookies are being shared equally among 4 people. How many does each person get? \u000a
p142
aVDeborah is running a marathon. She can run 4 miles in an hour. How long will it take her to run 26 miles?\u000a
p143
aV256 students are going to the zoo. They have to be divided into groups so that each teacher has one group. There are 8 teachers. How many students will be in each group?\u000a
p144
aVA fruit farm packs oranges in boxes that hold 10 each. One day it packs 2650 oranges. How many boxes did they use?\u000a
p145
aVYou want to give your baseball cards to your 5 best friends. You have 455 baseball cards. How many would each get, if you share them equally?\u000a
p146
aVMike has 45 dollars in 5 dollar bills.  How many 5 dollars bills does  he have ?\u000a
p147
aVA restaurant sold 63 hamburgers last 7 days. How many hamburgers on average were sold each day ?\u000a
p148
aVDan was at the beach for 5 days and found 36 seashells. He plans to give all of his seashells equally to his 4 friends. How many seashells will each friend get ?\u000a
p149
aVSandy worked 45 hours in the last 5 days. Assuming that she worked the same amount of hours each day, how long did she work each day ?\u000a
p150
aVThere were a total of 27 soccer games during the 3 month season.  If the games are equally divided, how many soccer games are played a month ?\u000a
p151
aVThere are 390 students at a school. If each classroom holds 30 students, how many classrooms are needed at the school?\u000a
p152
aVNancy bought 615 crayons that came in packs of 15.  How many packs of crayons did Nancy buy?\u000a
p153
aVA teacher has 344 pieces of candy. If there are 43 students, and the candy is divided evenly, How many pieces will each student get?\u000a
p154
aVShe counted her crayons and found out that she has 80 crayons which she will place in crayon boxes. Every crayon box can contain 8 crayons. How many crayon boxes does she need?\u000a
p155
aVBeside the pile of clean white paper was a stack of 700 sheets of used paper. She wants to place it in boxes for recycling. If every box can contain 100 sheets, how many boxes does she need?\u000a
p156
aVLexie\ufffd\ufffd\ufffds younger brother helped pick up all the paper clips in Lexie\ufffd\ufffd\ufffds room. He was able to collect 81 paper clips. If he wants to distribute the paper clips in 9 boxes, how many paper clips will each box contain?\u000a
p157
aVWhen relatives visit Haley and her family, she and her cousins do origami. If she has 48 origami papers to give away to her 6 cousins, how many will each receive if she gives everyone the same number of origami papers?\u000a
p158
aVHaley has 63 magazines in her cabinet. She plans to send it to the recycling office in their area. If she places it in boxes which can contain 9 magazines, how many boxes will she use?\u000a
p159
atp160
s.