(dp0
S'+'
p1
((lp2
(lp3
I1
aI1
aI1
aI1
aI0
aI1
aI1
aI0
aI0
aI600
aI0
aI0
aI0
aI0
aI0
aI0
aI0
aI0
aI0
aI0
aI0
aI0
aI0
aI0
aI0
aI0
aI0
aI0
aI0
aI0
aI0
aI0
aI0
aI0
aI0
aI0
aI0
aI0
aI0
aI0
aI0
aI0
aI1
aI0
aI0
aI0
aa(lp4
I1
aI1
aI1
aI1
aI1
aI1
aI1
aI0
aI0
aI600
aI0
aI0
aI0
aI0
aI0
aI0
aI0
aI0
aI0
aI0
aI0
aI0
aI0
aI0
aI0
aI0
aI0
aI0
aI0
aI0
aI0
aI0
aI0
aI0
aI0
aI0
aI0
aI0
aI0
aI0
aI0
aI0
aI0
aI0
aI0
aI0
aa(lp5
I1
aF0.1675187991745242
aI1
aI0
aI0
aI0
aI1
aI0
aI0
aI600
aI0
aI0
aI0
aI0
aI0
aI0
aI0
aI0
aI0
aI0
aI0
aI0
aI0
aI0
aI0
aI0
aI0
aI0
aI0
aI0
aI0
aI0
aI0
aI0
aI0
aI0
aI0
aI0
aI0
aI0
aI0
aI0
aI0
aI0
aI0
aI0
aa(lp6
I1
aI1
aI1
aI1
aI1
aI1
aI1
aI0
aI0
aI600
aI0
aI0
aI0
aI0
aI0
aI0
aI0
aI0
aI0
aI0
aI0
aI0
aI0
aI0
aI0
aI0
aI0
aI0
aI0
aI0
aI0
aI0
aI0
aI0
aI0
aI0
aI0
aI0
aI0
aI0
aI0
aI0
aI0
aI0
aI0
aI0
aa(lp7
I1
aI1
aI1
aI1
aI1
aI1
aI1
aI0
aI0
aI600
aI0
aI0
aI0
aI0
aI0
aI0
aI0
aI0
aI0
aI0
aI0
aI0
aI0
aI0
aI0
aI0
aI0
aI0
aI0
aI0
aI0
aI0
aI0
aI0
aI0
aI0
aI0
aI0
aI0
aI0
aI0
aI0
aI0
aI0
aI0
aI0
aa(lp8
I1
aI1
aF0.17393829957055215
aF0.19436771392667943
aI0
aF0.17417843002138775
aI1
aI0
aI0
aI600
aI0
aI0
aI0
aI0
aI0
aI0
aI0
aI0
aI0
aI0
aI0
aI0
aI0
aI0
aI0
aI0
aI0
aI0
aI0
aI0
aI0
aI0
aI0
aI0
aI0
aI0
aI0
aI0
aI0
aI0
aI0
aI0
aI0
aI0
aI0
aI0
aa(lp9
I1
aI1
aI1
aI1
aI1
aI1
aI1
aI0
aI0
aI600
aI0
aI0
aI0
aI0
aI0
aI0
aI0
aI0
aI0
aI0
aI0
aI0
aI0
aI0
aI0
aI0
aI0
aI0
aI0
aI0
aI0
aI0
aI0
aI0
aI0
aI0
aI0
aI0
aI0
aI0
aI0
aI0
aI0
aI0
aI0
aI0
aa(lp10
I1
aI1
aI1
aI1
aI0
aI1
aI1
aI0
aI0
aI600
aI0
aI0
aI0
aI0
aI0
aI0
aI0
aI0
aI0
aI0
aI0
aI0
aI0
aI0
aI0
aI0
aI0
aI0
aI0
aI0
aI0
aI0
aI0
aI0
aI0
aI0
aI0
aI0
aI0
aI0
aI0
aI0
aI0
aI0
aI0
aI0
aa(lp11
I1
aI1
aI1
aI0
aI0
aI0
aI1
aI0
aI0
aI600
aI0
aI0
aI0
aI0
aI0
aI0
aI0
aI0
aI0
aI0
aI0
aI0
aI0
aI0
aI0
aI0
aI0
aI0
aI0
aI0
aI0
aI0
aI0
aI0
aI0
aI0
aI0
aI1
aI0
aI0
aI0
aI0
aI0
aI0
aI0
aI0
aa(lp12
I1
aI1
aF0.16133424034626279
aI1
aI0
aI1
aI1
aI0
aI0
aI600
aI0
aI0
aI0
aI0
aI0
aI0
aI0
aI0
aI0
aI0
aI0
aI0
aI0
aI0
aI0
aI0
aI0
aI0
aI0
aI0
aI0
aI0
aI0
aI0
aI0
aI0
aI0
aI1
aI0
aI1
aI0
aI0
aI0
aI0
aI0
aI0
aa(lp13
I1
aI1
aF0.16133424034626279
aI1
aI1
aI1
aI1
aI0
aI0
aI600
aI0
aI0
aI0
aI0
aI0
aI0
aI0
aI0
aI0
aI0
aI0
aI0
aI0
aI0
aI0
aI0
aI0
aI0
aI0
aI0
aI0
aI0
aI0
aI0
aI0
aI0
aI0
aI0
aI0
aI0
aI0
aI0
aI0
aI0
aI0
aI0
aa(lp14
I1
aI1
aF0.16133424034626279
aI1
aI1
aI1
aI1
aI0
aI0
aI600
aI0
aI0
aI0
aI0
aI0
aI0
aI0
aI0
aI0
aI0
aI0
aI0
aI0
aI0
aI0
aI0
aI0
aI0
aI0
aI0
aI0
aI0
aI0
aI0
aI0
aI0
aI0
aI0
aI0
aI0
aI0
aI0
aI0
aI0
aI0
aI1
aa(lp15
I1
aI1
aF0.16133424034626279
aI1
aI0
aI1
aI1
aI0
aI0
aI600
aI0
aI0
aI0
aI0
aI0
aI0
aI0
aI0
aI0
aI0
aI0
aI0
aI0
aI0
aI0
aI0
aI0
aI0
aI0
aI0
aI0
aI0
aI0
aI0
aI0
aI0
aI0
aI0
aI0
aI0
aI0
aI0
aI0
aI0
aI0
aI1
aa(lp16
I1
aI1
aF0.16133424034626279
aI1
aI1
aI1
aI1
aI0
aI0
aI600
aI0
aI0
aI0
aI0
aI0
aI0
aI0
aI0
aI0
aI0
aI0
aI0
aI0
aI0
aI0
aI0
aI0
aI0
aI0
aI0
aI0
aI0
aI0
aI0
aI0
aI0
aI0
aI0
aI0
aI0
aI0
aI0
aI0
aI0
aI0
aI1
aa(lp17
I1
aF0.555013148927839
aI1
aI1
aI0
aI0
aI1
aI0
aI0
aI600
aI0
aI0
aI0
aI0
aI0
aI0
aI0
aI0
aI0
aI0
aI0
aI0
aI0
aI0
aI0
aI0
aI0
aI0
aI0
aI0
aI0
aI0
aI0
aI0
aI0
aI0
aI0
aI0
aI0
aI0
aI0
aI0
aI0
aI0
aI0
aI0
aa(lp18
I1
aI1
aI1
aI1
aI0
aI1
aI1
aI0
aI0
aI600
aI0
aI0
aI0
aI0
aI0
aI0
aI0
aI0
aI0
aI0
aI0
aI0
aI0
aI0
aI0
aI0
aI0
aI0
aI0
aI0
aI0
aI0
aI0
aI0
aI0
aI0
aI0
aI0
aI0
aI0
aI0
aI0
aI0
aI0
aI0
aI1
aa(lp19
I1
aI0
aI1
aI1
aI0
aI1
aI1
aI0
aI0
aI600
aI0
aI0
aI0
aI0
aI0
aI0
aI0
aI0
aI0
aI0
aI0
aI0
aI0
aI0
aI0
aI0
aI0
aI0
aI0
aI0
aI0
aI0
aI0
aI0
aI0
aI0
aI0
aI0
aI0
aI0
aI0
aI0
aI0
aI0
aI0
aI1
aa(lp20
I1
aI1
aI1
aI1
aI0
aI1
aI1
aI0
aI0
aI600
aI0
aI0
aI0
aI0
aI0
aI0
aI0
aI0
aI0
aI0
aI0
aI0
aI0
aI0
aI0
aI0
aI0
aI0
aI0
aI0
aI0
aI0
aI0
aI0
aI0
aI0
aI0
aI0
aI0
aI0
aI0
aI0
aI0
aI0
aI0
aI1
aa(lp21
I1
aF0.555013148927839
aI1
aI1
aI0
aI1
aI1
aI0
aI0
aI600
aI0
aI0
aI0
aI0
aI0
aI0
aI0
aI0
aI0
aI0
aI0
aI0
aI0
aI0
aI0
aI0
aI0
aI0
aI0
aI0
aI0
aI0
aI0
aI0
aI0
aI0
aI0
aI0
aI0
aI0
aI0
aI0
aI0
aI0
aI0
aI1
aa(lp22
I1
aI1
aI1
aI1
aI0
aI1
aI1
aI0
aI0
aI600
aI0
aI0
aI0
aI0
aI0
aI0
aI0
aI0
aI0
aI0
aI0
aI0
aI0
aI0
aI0
aI0
aI0
aI0
aI0
aI0
aI0
aI0
aI0
aI0
aI0
aI0
aI0
aI0
aI0
aI0
aI0
aI0
aI0
aI0
aI0
aI1
aa(lp23
I1
aI1
aI1
aI1
aI0
aI0
aI1
aI0
aI0
aI600
aI0
aI0
aI0
aI0
aI0
aI0
aI0
aI0
aI0
aI0
aI0
aI0
aI0
aI0
aI0
aI0
aI0
aI0
aI0
aI0
aI0
aI0
aI0
aI0
aI0
aI0
aI0
aI0
aI0
aI0
aI0
aI0
aI0
aI0
aI0
aI0
aa(lp24
I1
aI1
aI1
aI1
aI0
aI1
aI1
aI0
aI0
aI600
aI0
aI0
aI0
aI0
aI0
aI0
aI0
aI0
aI0
aI0
aI0
aI0
aI0
aI0
aI0
aI0
aI0
aI0
aI0
aI0
aI0
aI0
aI0
aI0
aI0
aI0
aI0
aI0
aI0
aI0
aI0
aI0
aI0
aI0
aI0
aI1
aa(lp25
I1
aI1
aI1
aI1
aI0
aI0
aI1
aI0
aI0
aI600
aI0
aI0
aI0
aI0
aI0
aI0
aI0
aI0
aI0
aI0
aI0
aI0
aI0
aI0
aI0
aI0
aI0
aI0
aI0
aI0
aI0
aI0
aI0
aI0
aI0
aI0
aI0
aI0
aI0
aI0
aI0
aI0
aI0
aI0
aI0
aI0
aa(lp26
I1
aI0
aI1
aI1
aI0
aI1
aI1
aI0
aI0
aI600
aI0
aI0
aI0
aI0
aI0
aI0
aI0
aI0
aI0
aI0
aI0
aI0
aI0
aI0
aI0
aI0
aI0
aI0
aI0
aI0
aI0
aI0
aI0
aI0
aI0
aI0
aI0
aI0
aI0
aI0
aI0
aI0
aI0
aI0
aI0
aI1
aa(lp27
I1
aI1
aI1
aI1
aI0
aI1
aI1
aI0
aI0
aI600
aI0
aI0
aI0
aI0
aI0
aI0
aI0
aI0
aI0
aI0
aI0
aI0
aI0
aI0
aI0
aI0
aI0
aI0
aI0
aI0
aI0
aI0
aI0
aI0
aI0
aI0
aI0
aI0
aI0
aI0
aI0
aI0
aI0
aI0
aI0
aI1
aa(lp28
I1
aI0
aF0.16133424034626279
aI1
aI0
aI1
aI1
aI0
aI0
aI600
aI0
aI0
aI0
aI0
aI0
aI0
aI0
aI0
aI0
aI0
aI0
aI0
aI0
aI0
aI0
aI0
aI0
aI0
aI0
aI0
aI0
aI0
aI0
aI0
aI0
aI0
aI0
aI0
aI0
aI0
aI0
aI0
aI0
aI0
aI0
aI1
aa(lp29
I1
aI1
aF0.16133424034626279
aI1
aI0
aI1
aI1
aI0
aI0
aI600
aI0
aI0
aI0
aI0
aI0
aI0
aI0
aI0
aI0
aI0
aI0
aI0
aI0
aI0
aI0
aI0
aI0
aI0
aI0
aI0
aI0
aI0
aI0
aI0
aI0
aI0
aI0
aI0
aI0
aI0
aI0
aI0
aI0
aI0
aI0
aI1
aa(lp30
I1
aI1
aF0.16133424034626279
aI1
aI0
aI1
aI1
aI0
aI0
aI600
aI0
aI0
aI0
aI0
aI0
aI0
aI0
aI0
aI0
aI0
aI0
aI0
aI0
aI0
aI0
aI0
aI0
aI0
aI0
aI0
aI0
aI0
aI0
aI0
aI0
aI0
aI0
aI0
aI0
aI0
aI0
aI0
aI0
aI0
aI0
aI1
aa(lp31
I1
aI1
aF0.16133424034626279
aI1
aI1
aI1
aI1
aI0
aI0
aI600
aI0
aI0
aI0
aI0
aI0
aI0
aI0
aI0
aI0
aI0
aI0
aI0
aI0
aI0
aI0
aI0
aI0
aI0
aI0
aI0
aI0
aI0
aI0
aI0
aI0
aI0
aI0
aI0
aI0
aI0
aI0
aI0
aI1
aI0
aI0
aI0
aa(lp32
I1
aI1
aF0.16133424034626279
aI1
aI1
aI1
aI1
aI0
aI0
aI600
aI0
aI0
aI0
aI0
aI0
aI0
aI0
aI0
aI0
aI0
aI0
aI0
aI0
aI0
aI0
aI0
aI0
aI0
aI0
aI0
aI0
aI0
aI0
aI0
aI0
aI0
aI0
aI0
aI0
aI0
aI0
aI0
aI0
aI0
aI0
aI1
aa(lp33
I1
aI0
aF0.16133424034626279
aI1
aI0
aI1
aI1
aI0
aI0
aI600
aI0
aI0
aI0
aI0
aI0
aI0
aI0
aI0
aI0
aI0
aI0
aI0
aI0
aI0
aI0
aI0
aI0
aI0
aI0
aI0
aI0
aI0
aI0
aI0
aI0
aI0
aI0
aI0
aI0
aI0
aI0
aI0
aI0
aI0
aI0
aI1
aa(lp34
I1
aI1
aF0.16133424034626279
aF0.2743844911127874
aI0
aF0.17417843002138775
aI1
aI0
aI0
aI600
aI0
aI0
aI0
aI0
aI0
aI0
aI0
aI0
aI0
aI0
aI0
aI0
aI0
aI0
aI0
aI0
aI0
aI0
aI0
aI0
aI0
aI0
aI0
aI0
aI0
aI0
aI0
aI0
aI0
aI0
aI0
aI0
aI0
aI0
aI0
aI0
aa(lp35
I1
aI1
aF0.16133424034626279
aI1
aI0
aI1
aI1
aI0
aI0
aI600
aI0
aI0
aI0
aI0
aI0
aI0
aI0
aI0
aI0
aI0
aI0
aI0
aI0
aI0
aI0
aI0
aI0
aI0
aI0
aI0
aI0
aI0
aI0
aI0
aI0
aI0
aI0
aI0
aI0
aI0
aI0
aI0
aI0
aI0
aI0
aI1
aa(lp36
I1
aI1
aF0.16133424034626279
aI1
aI1
aI1
aI1
aI0
aI0
aI600
aI0
aI0
aI0
aI0
aI0
aI0
aI0
aI0
aI0
aI0
aI0
aI0
aI0
aI0
aI0
aI0
aI0
aI0
aI0
aI0
aI0
aI0
aI0
aI0
aI0
aI0
aI0
aI0
aI0
aI0
aI0
aI0
aI1
aI0
aI0
aI0
aa(lp37
I1
aI1
aF0.16133424034626279
aI1
aI0
aI1
aI1
aI0
aI0
aI600
aI0
aI0
aI0
aI0
aI0
aI0
aI0
aI0
aI0
aI0
aI0
aI0
aI0
aI0
aI0
aI0
aI0
aI0
aI0
aI0
aI0
aI0
aI0
aI0
aI0
aI0
aI0
aI0
aI0
aI0
aI0
aI0
aI0
aI0
aI0
aI1
aa(lp38
I1
aI1
aF0.16133424034626279
aI1
aI0
aI1
aI1
aI0
aI0
aI600
aI0
aI0
aI0
aI0
aI0
aI0
aI0
aI0
aI0
aI0
aI0
aI0
aI0
aI0
aI0
aI0
aI0
aI0
aI0
aI0
aI0
aI0
aI0
aI0
aI0
aI0
aI0
aI0
aI0
aI0
aI0
aI0
aI0
aI0
aI0
aI1
aa(lp39
I1
aI1
aF0.16133424034626279
aI1
aI1
aI1
aI1
aI0
aI0
aI600
aI0
aI0
aI0
aI0
aI0
aI0
aI0
aI0
aI0
aI0
aI0
aI0
aI0
aI0
aI0
aI0
aI0
aI0
aI0
aI0
aI0
aI0
aI0
aI0
aI0
aI0
aI0
aI0
aI0
aI0
aI0
aI0
aI0
aI0
aI0
aI0
aa(lp40
I1
aI1
aF0.16133424034626279
aI1
aI1
aI1
aI1
aI0
aI0
aI600
aI0
aI0
aI0
aI0
aI0
aI0
aI0
aI0
aI0
aI0
aI0
aI0
aI0
aI0
aI0
aI0
aI0
aI0
aI0
aI0
aI0
aI0
aI0
aI0
aI0
aI0
aI0
aI0
aI0
aI0
aI0
aI0
aI0
aI0
aI0
aI1
aa(lp41
I1
aI1
aI1
aI1
aI1
aI1
aI1
aI0
aI0
aI600
aI0
aI0
aI0
aI0
aI0
aI0
aI0
aI0
aI0
aI0
aI0
aI0
aI0
aI0
aI0
aI0
aI0
aI0
aI0
aI0
aI0
aI0
aI0
aI0
aI0
aI0
aI0
aI0
aI0
aI0
aI0
aI0
aI0
aI0
aI0
aI1
aa(lp42
I1
aI1
aI1
aI1
aI0
aI0
aI1
aI0
aI0
aI600
aI0
aI0
aI0
aI0
aI0
aI0
aI0
aI0
aI0
aI0
aI0
aI0
aI0
aI0
aI0
aI0
aI0
aI0
aI0
aI0
aI0
aI0
aI0
aI0
aI0
aI0
aI0
aI0
aI0
aI0
aI0
aI0
aI0
aI0
aI0
aI0
aa(lp43
I1
aI1
aF0.14623139763227275
aI1
aI0
aI1
aI1
aI0
aI0
aI600
aI0
aI0
aI0
aI0
aI0
aI0
aI0
aI0
aI0
aI0
aI0
aI0
aI0
aI0
aI0
aI0
aI0
aI0
aI0
aI0
aI0
aI0
aI0
aI0
aI0
aI0
aI0
aI0
aI0
aI0
aI0
aI0
aI0
aI0
aI0
aI1
aa(lp44
I1
aI0
aF0.14623139763227275
aI1
aI0
aI1
aI1
aI0
aI0
aI600
aI0
aI0
aI0
aI0
aI0
aI0
aI0
aI0
aI0
aI0
aI0
aI0
aI0
aI0
aI0
aI0
aI0
aI0
aI0
aI0
aI0
aI0
aI0
aI0
aI0
aI0
aI0
aI0
aI0
aI0
aI0
aI0
aI0
aI0
aI0
aI1
aa(lp45
I1
aI1
aI1
aI1
aI0
aI1
aI1
aI0
aI0
aI600
aI0
aI0
aI0
aI0
aI0
aI0
aI0
aI0
aI0
aI0
aI0
aI0
aI0
aI0
aI0
aI0
aI0
aI0
aI0
aI0
aI0
aI0
aI0
aI0
aI0
aI0
aI0
aI0
aI0
aI0
aI0
aI0
aI0
aI0
aI0
aI1
aa(lp46
I1
aI1
aI1
aI1
aI1
aI1
aI1
aI0
aI0
aI600
aI0
aI0
aI0
aI0
aI0
aI0
aI0
aI0
aI0
aI0
aI0
aI0
aI0
aI0
aI0
aI0
aI0
aI0
aI0
aI0
aI0
aI0
aI0
aI0
aI0
aI0
aI0
aI0
aI0
aI0
aI0
aI0
aI1
aI0
aI0
aI0
aa(lp47
I1
aI0
aI1
aF0.26317136141364156
aI0
aI0
aI1
aI0
aI0
aI600
aI0
aI0
aI0
aI0
aI0
aI0
aI0
aI0
aI0
aI0
aI0
aI0
aI0
aI0
aI0
aI0
aI0
aI0
aI0
aI0
aI0
aI0
aI0
aI0
aI0
aI0
aI0
aI0
aI0
aI0
aI0
aI0
aI0
aI0
aI0
aI1
aa(lp48
I1
aI1
aI1
aF0.19436771392667943
aI0
aF0.17417843002138775
aI1
aI0
aI0
aI600
aI0
aI0
aI0
aI0
aI0
aI0
aI0
aI0
aI0
aI0
aI0
aI0
aI0
aI0
aI0
aI0
aI0
aI0
aI0
aI0
aI0
aI0
aI0
aI0
aI0
aI0
aI0
aI0
aI0
aI0
aI0
aI0
aI0
aI0
aI0
aI1
aa(lp49
I1
aI1
aI1
aF0.2509060962922141
aI0
aF0.17417843002138775
aI1
aI0
aI0
aI600
aI0
aI0
aI0
aI0
aI0
aI0
aI0
aI0
aI0
aI0
aI0
aI0
aI0
aI0
aI0
aI0
aI0
aI0
aI0
aI0
aI0
aI0
aI0
aI0
aI0
aI0
aI0
aI0
aI0
aI0
aI0
aI0
aI0
aI0
aI0
aI0
aa(lp50
I1
aI1
aI1
aI1
aI1
aI1
aI1
aI0
aI0
aI600
aI0
aI0
aI0
aI0
aI0
aI0
aI0
aI0
aI0
aI0
aI0
aI0
aI0
aI0
aI0
aI0
aI0
aI0
aI0
aI0
aI0
aI0
aI0
aI0
aI0
aI0
aI0
aI0
aI0
aI0
aI0
aI0
aI1
aI0
aI0
aI0
aa(lp51
I1
aI0
aI1
aI1
aF0.1652192462484373
aI1
aI1
aI0
aI0
aI600
aI0
aI0
aI0
aI0
aI0
aI0
aI0
aI0
aI0
aI0
aI0
aI0
aI0
aI0
aI0
aI0
aI0
aI0
aI0
aI0
aI0
aI0
aI0
aI0
aI0
aI0
aI0
aI0
aI0
aI0
aI0
aI0
aI1
aI0
aI0
aI0
aa(lp52
I1
aI1
aI1
aI1
aI1
aI1
aI1
aI0
aI0
aI600
aI0
aI0
aI0
aI0
aI0
aI0
aI0
aI0
aI0
aI0
aI0
aI0
aI0
aI0
aI0
aI0
aI0
aI0
aI0
aI0
aI0
aI0
aI0
aI0
aI0
aI0
aI0
aI0
aI0
aI0
aI0
aI0
aI1
aI0
aI0
aI0
aa(lp53
I1
aI1
aF0.16133424034626279
aI1
aI0
aI1
aI1
aI0
aI0
aI600
aI0
aI0
aI0
aI0
aI0
aI0
aI0
aI0
aI0
aI0
aI0
aI0
aI0
aI0
aI0
aI0
aI0
aI0
aI0
aI0
aI0
aI0
aI1
aI0
aI0
aI0
aI0
aI0
aI0
aI0
aI0
aI0
aI0
aI0
aI0
aI0
aa(lp54
I1
aI1
aF0.16133424034626279
aI1
aI1
aI1
aI1
aI0
aI0
aI600
aI0
aI0
aI0
aI0
aI0
aI0
aI0
aI0
aI0
aI0
aI0
aI0
aI0
aI0
aI0
aI0
aI0
aI0
aI0
aI0
aI0
aI0
aI0
aI0
aI0
aI1
aI0
aI0
aI0
aI0
aI0
aI0
aI0
aI0
aI0
aI0
aa(lp55
I1
aI1
aF0.16133424034626279
aF0.6264764452700349
aI0
aF0.17417843002138775
aI1
aI0
aI0
aI600
aI0
aI0
aI0
aI0
aI0
aI0
aI0
aI0
aI1
aI0
aI0
aI0
aI0
aI0
aI0
aI0
aI0
aI0
aI0
aI0
aI0
aI0
aI0
aI0
aI0
aI0
aI0
aI0
aI0
aI0
aI0
aI0
aI0
aI0
aI0
aI0
aa(lp56
I1
aI1
aF0.16133424034626279
aF0.16552921271687415
aI0
aI0
aI1
aI0
aI0
aI600
aI0
aI0
aI0
aI0
aI0
aI0
aI0
aI0
aI1
aI0
aI0
aI0
aI0
aI0
aI0
aI0
aI0
aI0
aI0
aI0
aI0
aI0
aI0
aI0
aI0
aI0
aI0
aI0
aI0
aI0
aI0
aI0
aI0
aI0
aI0
aI1
aa(lp57
I1
aI1
aF0.16133424034626279
aI1
aI1
aI1
aI1
aI0
aI0
aI600
aI0
aI0
aI0
aI0
aI0
aI0
aI0
aI0
aI0
aI0
aI0
aI0
aI0
aI0
aI0
aI0
aI0
aI0
aI0
aI0
aI0
aI0
aI0
aI0
aI0
aI0
aI0
aI0
aI0
aI0
aI0
aI0
aI0
aI0
aI0
aI0
aa(lp58
I1
aI1
aF0.16133424034626279
aF0.2509060962922141
aI0
aF0.17417843002138775
aI1
aI0
aI0
aI600
aI0
aI0
aI0
aI0
aI0
aI0
aI0
aI0
aI0
aI1
aI0
aI0
aI0
aI0
aI0
aI0
aI0
aI0
aI0
aI0
aI0
aI0
aI0
aI0
aI0
aI1
aI0
aI0
aI0
aI0
aI0
aI0
aI0
aI0
aI0
aI1
aa(lp59
I1
aI1
aF0.16133424034626279
aI1
aI1
aI1
aI1
aI0
aI0
aI600
aI0
aI0
aI0
aI0
aI0
aI0
aI0
aI0
aI0
aI0
aI0
aI0
aI0
aI0
aI0
aI0
aI0
aI0
aI0
aI0
aI0
aI0
aI0
aI0
aI0
aI0
aI1
aI0
aI0
aI0
aI0
aI0
aI0
aI0
aI0
aI0
aa(lp60
I1
aI1
aF0.16133424034626279
aI0
aI0
aI0
aI1
aI0
aI0
aI600
aI0
aI0
aI0
aI0
aI0
aI0
aI0
aI0
aI0
aI0
aI0
aI0
aI0
aI0
aI0
aI0
aI0
aI0
aI0
aI0
aI0
aI0
aI0
aI0
aI0
aI1
aI0
aI0
aI0
aI0
aI0
aI0
aI0
aI0
aI0
aI0
aa(lp61
I1
aI1
aF0.16133424034626279
aI1
aI1
aI1
aI1
aI0
aI0
aI600
aI0
aI0
aI0
aI0
aI0
aI0
aI0
aI0
aI0
aI0
aI0
aI0
aI0
aI0
aI0
aI0
aI0
aI0
aI0
aI0
aI0
aI0
aI0
aI0
aI0
aI1
aI0
aI0
aI0
aI0
aI0
aI0
aI0
aI0
aI0
aI0
aa(lp62
I1
aI1
aI1
aI1
aI1
aI1
aI1
aI0
aI0
aI600
aI0
aI0
aI0
aI0
aI0
aI0
aI0
aI0
aI0
aI0
aI0
aI0
aI0
aI0
aI0
aI0
aI0
aI0
aI0
aI0
aI0
aI0
aI0
aI0
aI0
aI0
aI1
aI0
aI0
aI0
aI0
aI0
aI0
aI0
aI0
aI0
aa(lp63
I1
aI1
aI1
aI1
aI1
aI1
aI1
aI0
aI0
aI600
aI0
aI0
aI0
aI0
aI0
aI0
aI0
aI0
aI0
aI0
aI0
aI0
aI0
aI0
aI0
aI0
aI0
aI0
aI0
aI0
aI0
aI0
aI0
aI0
aI0
aI1
aI0
aI0
aI0
aI0
aI0
aI0
aI0
aI0
aI0
aI0
aa(lp64
I1
aI1
aF0.14623139763227275
aI0
aI0
aI0
aI1
aI0
aI0
aI600
aI0
aI0
aI0
aI0
aI0
aI0
aI0
aI0
aI0
aI0
aI0
aI0
aI0
aI0
aI0
aI0
aI0
aI0
aI0
aI0
aI0
aI0
aI0
aI0
aI0
aI0
aI1
aI0
aI0
aI0
aI0
aI0
aI0
aI0
aI0
aI0
aa(lp65
I1
aI1
aI1
aF0.16552921271687415
aI0
aI0
aI1
aI0
aI0
aI600
aI0
aI0
aI0
aI0
aI0
aI0
aI0
aI0
aI0
aI1
aI0
aI0
aI0
aI0
aI0
aI0
aI0
aI0
aI0
aI0
aI0
aI0
aI0
aI0
aI0
aI0
aI0
aI0
aI0
aI0
aI0
aI0
aI0
aI0
aI0
aI1
aa(lp66
I1
aI1
aI1
aI1
aI1
aI1
aI1
aI0
aI0
aI600
aI0
aI0
aI0
aI0
aI0
aI0
aI0
aI0
aI0
aI0
aI0
aI0
aI0
aI0
aI0
aI0
aI0
aI0
aI0
aI0
aI0
aI0
aI0
aI0
aI0
aI1
aI0
aI0
aI0
aI0
aI0
aI0
aI0
aI0
aI0
aI0
aa(lp67
I1
aI1
aI1
aI1
aI0
aI1
aI1
aI0
aI0
aI600
aI0
aI0
aI0
aI0
aI0
aI0
aI0
aI0
aI0
aI0
aI0
aI0
aI0
aI0
aI0
aI0
aI0
aI0
aI0
aI0
aI0
aI0
aI0
aI0
aI0
aI1
aI0
aI0
aI0
aI0
aI0
aI0
aI0
aI0
aI0
aI0
aa(lp68
I1
aI1
aI1
aF0.2509060962922141
aI0
aF0.17417843002138775
aI1
aI0
aI0
aI600
aI0
aI0
aI0
aI0
aI0
aI0
aI0
aI0
aI1
aI0
aI0
aI0
aI0
aI0
aI0
aI0
aI0
aI0
aI0
aI0
aI0
aI0
aI0
aI0
aI0
aI1
aI0
aI0
aI0
aI0
aI0
aI0
aI0
aI0
aI0
aI1
aa(lp69
I1
aI1
aI1
aI1
aI1
aI1
aI1
aI0
aI0
aI600
aI0
aI0
aI0
aI0
aI0
aI0
aI0
aI0
aI0
aI0
aI0
aI0
aI0
aI0
aI0
aI0
aI0
aI0
aI0
aI0
aI0
aI0
aI0
aI0
aI0
aI0
aI0
aI0
aI0
aI0
aI0
aI0
aI0
aI0
aI0
aI0
aa(lp70
I1
aI1
aF0.17393829957055215
aI1
aI0
aI1
aI1
aI0
aI0
aI600
aI0
aI0
aI0
aI0
aI0
aI0
aI0
aI0
aI0
aI0
aI0
aI0
aI0
aI0
aI0
aI0
aI0
aI0
aI0
aI0
aI0
aI0
aI0
aI0
aI0
aI0
aI0
aI1
aI0
aI0
aI0
aI0
aI0
aI0
aI0
aI0
aa(lp71
I1
aI1
aF0.17393829957055215
aI0
aI0
aI0
aI1
aI0
aI0
aI600
aI0
aI0
aI0
aI0
aI0
aI0
aI0
aI0
aI0
aI0
aI0
aI0
aI0
aI0
aI0
aI0
aI0
aI0
aI0
aI0
aI0
aI0
aI0
aI0
aI0
aI0
aI0
aI0
aI0
aI0
aI0
aI0
aI0
aI0
aI0
aI0
aa(lp72
I1
aI1
aI1
aI1
aI1
aI1
aI1
aI0
aI0
aI600
aI0
aI0
aI0
aI0
aI0
aI0
aI0
aI0
aI0
aI0
aI0
aI0
aI0
aI0
aI0
aI0
aI0
aI0
aI0
aI0
aI0
aI0
aI0
aI0
aI0
aI0
aI0
aI0
aI0
aI0
aI0
aI0
aI0
aI0
aI0
aI0
aa(lp73
I1
aI1
aI1
aI1
aI1
aI1
aI1
aI0
aI0
aI600
aI0
aI0
aI0
aI0
aI0
aI0
aI0
aI0
aI0
aI0
aI0
aI0
aI0
aI0
aI0
aI0
aI0
aI0
aI0
aI0
aI0
aI0
aI0
aI0
aI0
aI0
aI0
aI0
aI0
aI0
aI0
aI0
aI0
aI0
aI0
aI0
aa(lp74
I1
aI1
aI1
aI1
aI1
aI1
aI1
aI0
aI0
aI600
aI0
aI0
aI0
aI0
aI0
aI0
aI0
aI0
aI0
aI0
aI0
aI0
aI0
aI0
aI0
aI0
aI0
aI0
aI0
aI0
aI0
aI0
aI1
aI0
aI0
aI0
aI0
aI0
aI0
aI0
aI0
aI0
aI0
aI0
aI0
aI0
aa(lp75
I1
aI1
aI1
aI1
aI1
aI1
aI1
aI0
aI0
aI600
aI0
aI0
aI0
aI0
aI0
aI0
aI0
aI0
aI0
aI0
aI0
aI0
aI0
aI0
aI0
aI0
aI0
aI0
aI0
aI0
aI0
aI0
aI0
aI0
aI0
aI0
aI0
aI0
aI0
aI0
aI0
aI0
aI0
aI0
aI0
aI0
aa(lp76
I1
aI1
aI1
aF0.19913640292796592
aI0
aI0
aI1
aI0
aI0
aI600
aI0
aI0
aI0
aI0
aI0
aI0
aI0
aI0
aI0
aI1
aI0
aI0
aI0
aI0
aI0
aI0
aI0
aI0
aI0
aI0
aI0
aI0
aI0
aI0
aI0
aI0
aI0
aI0
aI0
aI0
aI0
aI0
aI0
aI0
aI0
aI0
aa(lp77
I1
aI0
aI1
aI1
aI1
aI1
aI1
aI0
aI0
aI600
aI0
aI0
aI0
aI0
aI0
aI0
aI0
aI0
aI0
aI0
aI0
aI0
aI0
aI0
aI0
aI0
aI0
aI0
aI0
aI0
aI0
aI0
aI0
aI0
aI0
aI1
aI0
aI0
aI0
aI0
aI0
aI0
aI0
aI0
aI0
aI0
aa(lp78
I1
aI1
aI1
aF0.6264764452700349
aI0
aF0.17417843002138775
aI1
aI0
aI0
aI600
aI0
aI0
aI0
aI0
aI0
aI0
aI0
aI0
aI1
aI0
aI0
aI0
aI0
aI0
aI0
aI0
aI0
aI0
aI0
aI0
aI0
aI0
aI0
aI0
aI0
aI0
aI0
aI0
aI0
aI0
aI0
aI0
aI0
aI0
aI0
aI0
aa(lp79
I1
aI1
aI1
aI1
aI1
aI1
aI1
aI0
aI0
aI600
aI0
aI0
aI0
aI0
aI0
aI0
aI0
aI0
aI0
aI0
aI0
aI0
aI0
aI0
aI0
aI0
aI0
aI0
aI0
aI0
aI0
aI0
aI0
aI0
aI0
aI0
aI0
aI0
aI0
aI0
aI0
aI0
aI0
aI0
aI0
aI1
aa(lp80
I1
aI1
aI1
aF0.2509060962922141
aI0
aF0.17417843002138775
aI1
aI0
aI0
aI600
aI0
aI0
aI0
aI0
aI0
aI0
aI0
aI0
aI0
aI1
aI0
aI0
aI0
aI0
aI0
aI0
aI0
aI0
aI0
aI0
aI0
aI0
aI0
aI0
aI0
aI1
aI0
aI0
aI0
aI0
aI0
aI0
aI0
aI0
aI0
aI1
aa(lp81
I1
aI1
aI1
aI0
aI0
aI0
aI1
aI0
aI0
aI600
aI0
aI0
aI0
aI0
aI0
aI0
aI0
aI0
aI0
aI0
aI0
aI0
aI0
aI0
aI0
aI0
aI0
aI0
aI0
aI0
aI0
aI0
aI0
aI0
aI0
aI0
aI1
aI0
aI0
aI0
aI0
aI0
aI0
aI0
aI0
aI0
aa(lp82
I1
aI1
aI1
aI1
aI1
aI1
aI1
aI0
aI0
aI600
aI0
aI0
aI0
aI0
aI0
aI0
aI0
aI0
aI0
aI0
aI0
aI0
aI0
aI0
aI0
aI0
aI0
aI0
aI0
aI0
aI0
aI0
aI0
aI0
aI0
aI1
aI0
aI0
aI0
aI0
aI0
aI0
aI0
aI0
aI0
aI0
aa(lp83
I1
aI1
aI1
aI0
aI0
aI0
aI1
aI0
aI0
aI600
aI0
aI0
aI0
aI0
aI0
aI0
aI0
aI0
aI0
aI0
aI0
aI0
aI0
aI0
aI0
aI0
aI0
aI0
aI0
aI0
aI0
aI0
aI0
aI0
aI0
aI1
aI0
aI0
aI0
aI0
aI0
aI0
aI0
aI0
aI0
aI0
aa(lp84
I1
aF0.555013148927839
aF0.14623139763227275
aI1
aI0
aI1
aI1
aI0
aI0
aI600
aI0
aI0
aI0
aI0
aI0
aI0
aI0
aI0
aI0
aI0
aI0
aI0
aI0
aI0
aI0
aI0
aI0
aI0
aI0
aI0
aI0
aI0
aI1
aI0
aI0
aI0
aI0
aI0
aI0
aI0
aI0
aI0
aI0
aI0
aI0
aI0
aa(lp85
I1
aI1
aI1
aI1
aI1
aI1
aI1
aI0
aI0
aI600
aI0
aI0
aI0
aI0
aI0
aI0
aI0
aI0
aI0
aI0
aI0
aI0
aI0
aI0
aI0
aI0
aI0
aI0
aI0
aI0
aI0
aI0
aI0
aI0
aI0
aI0
aI1
aI0
aI0
aI0
aI0
aI0
aI0
aI0
aI0
aI0
aa(lp86
(lp87
I1
aI0
aF0.17393829957055215
aI1
aF0.6264764452700349
aI1
aI1
aI0
aI0
aI600
aI0
aI0
aI0
aI0
aI0
aI0
aI0
aI0
aI0
aI0
aI0
aI0
aI0
aI0
aI0
aI0
aI0
aI0
aI0
aI0
aI1
aI1
aI0
aI1
aI0
aI0
aI0
aI0
aI0
aI0
aI0
aI0
aI0
aI0
aI0
aI0
aa(lp88
I1
aI1
aF0.14623139763227275
aI1
aF0.15551595633801849
aI1
aI1
aI0
aI0
aI600
aI1
aI0
aI0
aI0
aI0
aI0
aI0
aI0
aI0
aI0
aI0
aI0
aI0
aI0
aI0
aI0
aI0
aI0
aI0
aI0
aI0
aI0
aI0
aI1
aI0
aI0
aI0
aI0
aI0
aI0
aI0
aI0
aI0
aI0
aI0
aI0
aa(lp89
I1
aI1
aF0.17393829957055215
aI1
aI0
aF0.17417843002138775
aI1
aI0
aI0
aI600
aI0
aI1
aI0
aI0
aI0
aI0
aI0
aI0
aI0
aI0
aI0
aI0
aI0
aI0
aI0
aI0
aI0
aI0
aI0
aI0
aI0
aI0
aI0
aI0
aI0
aI0
aI0
aI0
aI0
aI0
aI0
aI0
aI0
aI0
aI0
aI0
aa(lp90
I1
aI1
aI1
aI1
aI0
aI1
aI1
aI0
aI0
aI600
aI0
aI1
aI0
aI0
aI0
aI0
aI0
aI0
aI0
aI0
aI0
aI0
aI0
aI0
aI0
aI0
aI0
aI0
aI0
aI0
aI0
aI0
aI0
aI0
aI0
aI0
aI0
aI0
aI0
aI0
aI0
aI0
aI0
aI0
aI0
aI0
aa(lp91
I1
aI1
aI1
aI1
aI0
aI1
aI1
aI0
aI0
aI600
aI1
aI0
aI0
aI0
aI0
aI0
aI0
aI0
aI0
aI0
aI0
aI0
aI0
aI0
aI0
aI0
aI0
aI0
aI0
aI0
aI0
aI0
aI0
aI0
aI0
aI0
aI0
aI0
aI0
aI0
aI0
aI0
aI0
aI0
aI0
aI0
aa(lp92
I1
aI1
aI1
aI1
aI0
aI1
aI1
aI0
aI0
aI600
aI1
aI0
aI0
aI0
aI0
aI0
aI0
aI0
aI0
aI0
aI0
aI0
aI0
aI0
aI0
aI0
aI0
aI0
aI0
aI0
aI0
aI0
aI0
aI1
aI0
aI0
aI0
aI0
aI0
aI0
aI0
aI0
aI0
aI0
aI0
aI0
aa(lp93
I1
aI1
aI1
aI1
aI0
aI1
aI1
aI0
aI0
aI600
aI0
aI0
aI0
aI0
aI0
aI0
aI0
aI0
aI0
aI0
aI0
aI0
aI0
aI0
aI0
aI0
aI0
aI0
aI0
aI0
aI0
aI0
aI0
aI0
aI0
aI0
aI0
aI0
aI0
aI0
aI0
aI0
aI0
aI0
aI0
aI0
aa(lp94
I1
aI1
aI1
aF0.16557874207576306
aI0
aF0.17417843002138775
aI1
aI0
aI0
aI600
aI0
aI1
aI0
aI0
aI0
aI0
aI0
aI0
aI0
aI0
aI0
aI0
aI0
aI0
aI0
aI0
aI0
aI0
aI0
aI0
aI0
aI0
aI0
aI0
aI0
aI0
aI0
aI0
aI0
aI0
aI0
aI0
aI0
aI0
aI0
aI0
aa(lp95
I1
aI1
aF0.17393829957055215
aI1
aF0.555013148927839
aI1
aI1
aI0
aI0
aI600
aI0
aI0
aI0
aI0
aI0
aI0
aI0
aI0
aI0
aI1
aI0
aI0
aI0
aI0
aI0
aI0
aI0
aI0
aI0
aI0
aI0
aI1
aI0
aI0
aI0
aI0
aI0
aI0
aI0
aI0
aI0
aI0
aI0
aI0
aI0
aI0
aa(lp96
I1
aI1
aI1
aI1
aF0.6264764452700349
aI1
aI1
aI0
aI0
aI600
aI0
aI0
aI0
aI0
aI0
aI0
aI0
aI0
aI0
aI0
aI0
aI0
aI0
aI0
aI0
aI0
aI0
aI0
aI0
aI0
aI1
aI1
aI0
aI1
aI0
aI0
aI0
aI0
aI0
aI0
aI0
aI0
aI0
aI0
aI0
aI0
aa(lp97
I1
aI1
aF0.17393829957055215
aI0
aI0
aI0
aI1
aI0
aI0
aI600
aI0
aI0
aI0
aI0
aI0
aI0
aI0
aI0
aI0
aI0
aI0
aI0
aI0
aI0
aI0
aI0
aI0
aI0
aI0
aI0
aI0
aI0
aI0
aI0
aI0
aI0
aI0
aI0
aI0
aI0
aI0
aI0
aI0
aI0
aI0
aI0
aa(lp98
I1
aI1
aI1
aF0.2028833327579083
aF0.29998092927617304
aI0
aI1
aI0
aI0
aI600
aI0
aI0
aI0
aI0
aI0
aI0
aI0
aI0
aI0
aI0
aI0
aI0
aI0
aI0
aI0
aI0
aI0
aI0
aI0
aI0
aI0
aI0
aI0
aI1
aI0
aI0
aI0
aI0
aI0
aI0
aI0
aI0
aI0
aI0
aI0
aI0
aa(lp99
I1
aI1
aI1
aI1
aI1
aI1
aI1
aI0
aI0
aI600
aI0
aI0
aI0
aI0
aI0
aI0
aI0
aI0
aI0
aI0
aI0
aI0
aI0
aI0
aI0
aI0
aI0
aI0
aI0
aI0
aI0
aI0
aI0
aI0
aI0
aI0
aI0
aI0
aI0
aI0
aI0
aI0
aI0
aI0
aI0
aI0
aa(lp100
I1
aI0
aI1
aI1
aF0.29998092927617304
aI1
aI1
aI0
aI0
aI600
aI0
aI0
aI0
aI0
aI0
aI0
aI0
aI0
aI0
aI0
aI0
aI0
aI0
aI0
aI0
aI0
aI0
aI0
aI0
aI0
aI0
aI0
aI0
aI1
aI0
aI0
aI0
aI0
aI0
aI0
aI0
aI0
aI0
aI0
aI0
aI0
aa(lp101
I1
aF0.555013148927839
aI1
aF0.15779967308059284
aI0
aI0
aI1
aI0
aI0
aI600
aI0
aI0
aI0
aI0
aI0
aI0
aI0
aI0
aI0
aI0
aI0
aI0
aI0
aI0
aI0
aI0
aI0
aI0
aI0
aI0
aI0
aI0
aI0
aI0
aI0
aI0
aI0
aI0
aI0
aI0
aI0
aI0
aI0
aI0
aI0
aI0
aa(lp102
I1
aI1
aI1
aI1
aF0.555013148927839
aI1
aI1
aI0
aI0
aI600
aI0
aI0
aI0
aI0
aI0
aI0
aI0
aI0
aI0
aI0
aI0
aI0
aI0
aI0
aI0
aI0
aI0
aI0
aI0
aI0
aI0
aI0
aI0
aI1
aI0
aI0
aI0
aI0
aI0
aI0
aI0
aI0
aI0
aI0
aI0
aI0
aa(lp103
I1
aI0
aI1
aI1
aF0.39497064239625734
aI1
aI1
aI0
aI0
aI600
aI0
aI0
aI0
aI0
aI0
aI0
aI0
aI0
aI0
aI0
aI0
aI0
aI0
aI0
aI0
aI0
aI0
aI0
aI0
aI0
aI0
aI0
aI0
aI1
aI0
aI0
aI0
aI0
aI0
aI0
aI0
aI0
aI0
aI0
aI0
aI0
aa(lp104
I1
aI0
aI1
aI1
aF0.12996240609844528
aI1
aI1
aI0
aI0
aI600
aI0
aI0
aI0
aI0
aI0
aI0
aI0
aI0
aI0
aI0
aI0
aI0
aI0
aI0
aI0
aI0
aI0
aI0
aI0
aI0
aI0
aI0
aI0
aI1
aI0
aI0
aI0
aI0
aI0
aI0
aI0
aI0
aI0
aI0
aI0
aI0
aa(lp105
I1
aI1
aF0.17393829957055215
aI1
aF0.2709217414774352
aI1
aI1
aI0
aI0
aI600
aI0
aI0
aI0
aI0
aI1
aI1
aI0
aI0
aI0
aI0
aI0
aI0
aI0
aI0
aI0
aI0
aI0
aI0
aI0
aI0
aI0
aI0
aI0
aI0
aI0
aI0
aI0
aI0
aI0
aI0
aI0
aI0
aI0
aI0
aI1
aI0
aa(lp106
I1
aI1
aI1
aF0.19587082446504103
aI0
aF0.17417843002138775
aI1
aI0
aI0
aI600
aI1
aI0
aI0
aI0
aI0
aI0
aI0
aI0
aI0
aI0
aI0
aI0
aI0
aI0
aI0
aI0
aI0
aI0
aI0
aI0
aI0
aI0
aI0
aI1
aI0
aI0
aI0
aI0
aI0
aI0
aI0
aI0
aI0
aI0
aI0
aI0
aa(lp107
I1
aI0
aI1
aI1
aF0.234869748029384
aI1
aI1
aI0
aI0
aI600
aI0
aI0
aI0
aI0
aI0
aI0
aI0
aI0
aI0
aI0
aI0
aI0
aI0
aI0
aI0
aI0
aI0
aI0
aI0
aI0
aI0
aI0
aI0
aI0
aI0
aI0
aI0
aI0
aI0
aI0
aI0
aI0
aI0
aI0
aI0
aI0
aa(lp108
I1
aI1
aI1
aF0.26317136141364156
aF0.39497064239625734
aF0.17417843002138775
aI1
aI0
aI0
aI600
aI1
aI0
aI0
aI0
aI0
aI0
aI0
aI0
aI0
aI0
aI0
aI0
aI0
aI0
aI0
aI0
aI0
aI0
aI0
aI0
aI0
aI0
aI0
aI1
aI0
aI0
aI0
aI0
aI0
aI0
aI0
aI0
aI0
aI0
aI0
aI0
aa(lp109
I1
aI1
aF0.17393829957055215
aF0.28136387185230444
aI0
aI0
aI1
aI0
aI0
aI600
aI0
aI0
aI0
aI0
aI0
aI0
aI0
aI0
aI0
aI0
aI0
aI0
aI0
aI0
aI0
aI0
aI0
aI0
aI0
aI0
aI0
aI0
aI0
aI0
aI0
aI0
aI0
aI0
aI0
aI0
aI0
aI0
aI0
aI0
aI0
aI0
aa(lp110
I1
aI1
aI1
aI1
aI0
aI1
aI1
aI0
aI0
aI600
aI0
aI0
aI0
aI0
aI0
aI0
aI0
aI0
aI0
aI0
aI0
aI0
aI0
aI0
aI0
aI0
aI0
aI0
aI0
aI0
aI0
aI0
aI0
aI0
aI0
aI0
aI0
aI0
aI0
aI0
aI0
aI0
aI0
aI0
aI0
aI0
aa(lp111
I1
aF0.09400894020119234
aI1
aI1
aF0.11147856481020386
aI1
aI1
aI0
aI0
aI600
aI0
aI1
aI0
aI0
aI0
aI0
aI0
aI0
aI0
aI0
aI0
aI0
aI0
aI0
aI0
aI0
aI0
aI0
aI0
aI0
aI0
aI0
aI0
aI1
aI0
aI0
aI0
aI0
aI0
aI0
aI0
aI0
aI0
aI0
aI0
aI0
aa(lp112
I1
aI1
aI1
aI1
aI1
aI1
aI1
aI0
aI0
aI600
aI1
aI0
aI0
aI0
aI0
aI0
aI0
aI0
aI0
aI0
aI0
aI0
aI0
aI0
aI0
aI0
aI0
aI0
aI0
aI0
aI0
aI0
aI0
aI1
aI0
aI0
aI0
aI0
aI0
aI0
aI0
aI0
aI0
aI0
aI0
aI0
aa(lp113
I1
aI1
aI1
aF0.28136387185230444
aI0
aI0
aI1
aI0
aI0
aI600
aI0
aI0
aI0
aI0
aI0
aI0
aI0
aI0
aI0
aI0
aI0
aI0
aI0
aI0
aI0
aI0
aI0
aI0
aI0
aI0
aI0
aI0
aI0
aI0
aI0
aI0
aI0
aI0
aI0
aI0
aI0
aI0
aI0
aI0
aI0
aI0
aa(lp114
I1
aI1
aF0.14623139763227275
aI1
aF0.6264764452700349
aI1
aI1
aI0
aI0
aI600
aI1
aI0
aI0
aI0
aI0
aI0
aI0
aI0
aI0
aI0
aI0
aI0
aI0
aI0
aI0
aI0
aI0
aI0
aI0
aI0
aI0
aI0
aI0
aI0
aI0
aI0
aI0
aI0
aI0
aI0
aI0
aI0
aI0
aI0
aI0
aI0
aa(lp115
I1
aI1
aF0.17393829957055215
aI0
aF0.3000986344609609
aF0.17417843002138775
aI1
aI0
aI0
aI600
aI0
aI0
aI0
aI0
aI0
aI0
aI0
aI0
aI0
aI0
aI0
aI0
aI0
aI0
aI0
aI0
aI0
aI0
aI0
aI0
aI0
aI0
aI0
aI0
aI0
aI0
aI0
aI0
aI0
aI0
aI0
aI0
aI0
aI0
aI0
aI0
aa(lp116
I1
aI1
aF0.17393829957055215
aI1
aF0.2709217414774352
aI1
aI1
aI0
aI0
aI600
aI0
aI0
aI0
aI1
aI0
aI0
aI0
aI0
aI0
aI0
aI0
aI0
aI0
aI0
aI0
aI0
aI0
aI0
aI0
aI0
aI0
aI0
aI0
aI0
aI0
aI0
aI0
aI0
aI0
aI0
aI0
aI0
aI0
aI0
aI0
aI0
aa(lp117
I1
aI1
aF0.14623139763227275
aF0.26317136141364156
aF0.1283075585112721
aF0.17417843002138775
aI1
aI0
aI0
aI600
aI1
aI0
aI0
aI0
aI0
aI0
aI0
aI0
aI0
aI0
aI0
aI0
aI0
aI0
aI0
aI0
aI0
aI0
aI0
aI0
aI0
aI0
aI1
aI0
aI0
aI0
aI0
aI0
aI0
aI0
aI0
aI0
aI0
aI0
aI0
aI0
aa(lp118
I1
aI1
aI1
aI1
aF0.2709217414774352
aI1
aI1
aI0
aI0
aI600
aI0
aI0
aI0
aI0
aI0
aI0
aI0
aI0
aI0
aI0
aI0
aI0
aI0
aI0
aI0
aI0
aI0
aI0
aI0
aI0
aI0
aI0
aI0
aI0
aI0
aI0
aI0
aI0
aI0
aI0
aI0
aI0
aI0
aI0
aI0
aI0
aa(lp119
I1
aI1
aI1
aI1
aF0.2709217414774352
aI1
aI1
aI0
aI0
aI600
aI0
aI0
aI0
aI0
aI0
aI0
aI0
aI0
aI0
aI0
aI0
aI0
aI0
aI0
aI0
aI0
aI0
aI0
aI0
aI0
aI0
aI0
aI0
aI0
aI0
aI0
aI0
aI0
aI0
aI0
aI0
aI0
aI0
aI0
aI0
aI0
aa(lp120
I1
aI1
aF0.17393829957055215
aI1
aF0.6264764452700349
aI1
aI1
aI0
aI0
aI600
aI0
aI0
aI0
aI0
aI0
aI0
aI0
aI0
aI0
aI0
aI0
aI0
aI0
aI0
aI0
aI0
aI0
aI0
aI0
aI0
aI0
aI0
aI0
aI0
aI0
aI0
aI0
aI0
aI0
aI0
aI0
aI0
aI0
aI0
aI0
aI0
aa(lp121
I1
aF1e-300
aI1
aI0
aF0.07796333216797775
aI0
aI1
aI0
aI0
aI600
aI0
aI0
aI0
aI0
aI0
aI0
aI0
aI0
aI0
aI0
aI0
aI0
aI0
aI0
aI0
aI0
aI0
aI0
aI0
aI0
aI0
aI0
aI0
aI0
aI0
aI0
aI0
aI0
aI0
aI0
aI0
aI0
aI0
aI0
aI0
aI0
aa(lp122
I1
aF0.23058976593992853
aF0.16133424034626279
aI1
aI0
aI1
aI1
aI0
aI0
aI600
aI0
aI0
aI0
aI0
aI0
aI0
aI0
aI0
aI0
aI0
aI0
aI0
aI0
aI0
aI0
aI0
aI0
aI0
aI0
aI0
aI0
aI0
aI0
aI0
aI0
aI0
aI0
aI0
aI0
aI0
aI0
aI0
aI0
aI0
aI0
aI0
aa(lp123
I1
aI1
aF0.17393829957055215
aI1
aF0.13404407351310227
aI1
aI1
aI0
aI0
aI600
aI0
aI0
aI0
aI0
aI0
aI0
aI0
aI0
aI0
aI0
aI0
aI0
aI0
aI0
aI0
aI0
aI0
aI0
aI0
aI0
aI0
aI0
aI0
aI0
aI0
aI0
aI0
aI0
aI0
aI0
aI0
aI0
aI0
aI0
aI0
aI0
aa(lp124
I1
aI1
aI1
aI1
aF0.2709217414774352
aI1
aI1
aI0
aI0
aI600
aI0
aI0
aI0
aI0
aI0
aI0
aI0
aI0
aI0
aI0
aI0
aI0
aI0
aI0
aI0
aI0
aI0
aI0
aI0
aI0
aI0
aI0
aI0
aI0
aI0
aI0
aI0
aI0
aI0
aI0
aI0
aI0
aI0
aI0
aI0
aI0
aa(lp125
I1
aI1
aF0.17393829957055215
aI1
aF0.1405027412693133
aI1
aI1
aI0
aI0
aI600
aI0
aI0
aI0
aI0
aI0
aI0
aI0
aI0
aI0
aI0
aI0
aI0
aI0
aI0
aI0
aI0
aI0
aI0
aI0
aI0
aI0
aI0
aI0
aI0
aI0
aI0
aI0
aI0
aI0
aI0
aI0
aI0
aI0
aI0
aI0
aI0
aa(lp126
I1
aI1
aF0.17393829957055215
aF0.28167468250923683
aF0.1892211464008919
aI0
aI1
aI0
aI0
aI600
aI0
aI0
aI0
aI0
aI0
aI0
aI0
aI0
aI0
aI0
aI0
aI0
aI0
aI0
aI0
aI0
aI0
aI0
aI0
aI0
aI0
aI0
aI0
aI0
aI0
aI0
aI0
aI0
aI0
aI0
aI0
aI0
aI0
aI0
aI0
aI0
aa(lp127
I1
aI1
aI1
aI1
aF0.1892211464008919
aI1
aI1
aI0
aI0
aI600
aI1
aI0
aI0
aI0
aI0
aI0
aI0
aI0
aI0
aI0
aI0
aI0
aI0
aI0
aI0
aI0
aI0
aI0
aI0
aI0
aI0
aI0
aI0
aI0
aI0
aI0
aI0
aI0
aI0
aI0
aI0
aI0
aI0
aI0
aI0
aI0
aa(lp128
I1
aI1
aF0.17393829957055215
aI1
aF0.27627027514942604
aI1
aI1
aI0
aI0
aI600
aI0
aI0
aI0
aI0
aI0
aI0
aI0
aI0
aI0
aI0
aI0
aI0
aI0
aI0
aI0
aI0
aI0
aI0
aI0
aI0
aI0
aI0
aI0
aI0
aI0
aI0
aI0
aI0
aI0
aI0
aI0
aI0
aI0
aI0
aI0
aI0
aa(lp129
I1
aF0.09400894020119234
aF0.17393829957055215
aI1
aF0.2709217414774352
aI1
aI1
aI0
aI0
aI600
aI0
aI1
aI0
aI0
aI0
aI0
aI0
aI0
aI0
aI0
aI0
aI0
aI0
aI0
aI0
aI0
aI0
aI0
aI0
aI0
aI0
aI0
aI0
aI0
aI0
aI0
aI0
aI0
aI0
aI0
aI0
aI0
aI0
aI0
aI0
aI0
aa(lp130
I1
aI1
aF0.14623139763227275
aI1
aF0.1892211464008919
aI1
aI1
aI0
aI0
aI600
aI0
aI0
aI0
aI0
aI0
aI0
aI0
aI0
aI0
aI0
aI0
aI0
aI0
aI0
aI0
aI0
aI0
aI0
aI0
aI0
aI0
aI0
aI0
aI0
aI0
aI0
aI0
aI0
aI0
aI0
aI0
aI0
aI0
aI0
aI0
aI0
aa(lp131
I1
aI0
aF0.16133424034626279
aI1
aF0.2709217414774352
aI1
aI1
aI0
aI0
aI600
aI0
aI0
aI0
aI0
aI0
aI0
aI0
aI0
aI0
aI0
aI0
aI0
aI0
aI0
aI0
aI0
aI0
aI0
aI0
aI0
aI0
aI0
aI0
aI0
aI0
aI1
aI0
aI0
aI0
aI0
aI0
aI0
aI0
aI0
aI0
aI0
aa(lp132
I1
aF0.555013148927839
aF0.16133424034626279
aI0
aF0.09972554926361525
aI0
aI1
aI0
aI0
aI600
aI0
aI0
aI0
aI0
aI0
aI0
aI0
aI0
aI0
aI0
aI0
aI0
aI0
aI0
aI0
aI0
aI0
aI0
aI0
aI0
aI0
aI0
aI0
aI0
aI0
aI0
aI0
aI0
aI0
aI0
aI0
aI0
aI0
aI0
aI0
aI0
aa(lp133
F0.2709217414774352
aI1
aI1
aI1
aF0.12154946780513323
aI1
aI1
aI0
aI0
aI600
aI0
aI0
aI0
aI0
aI0
aI0
aI0
aI0
aI0
aI0
aI0
aI0
aI0
aI0
aI0
aI0
aI0
aI0
aI0
aI0
aI0
aI0
aI0
aI0
aI0
aI0
aI0
aI0
aI0
aI0
aI0
aI0
aI0
aI0
aI0
aI0
aa(lp134
I1
aI1
aI1
aF0.26317136141364156
aF0.39497064239625734
aF0.17417843002138775
aI1
aI0
aI0
aI600
aI0
aI1
aI0
aI0
aI0
aI0
aI0
aI0
aI0
aI0
aI0
aI0
aI0
aI0
aI0
aI0
aI0
aI0
aI0
aI0
aI0
aI0
aI0
aI0
aI0
aI0
aI0
aI0
aI0
aI0
aI0
aI0
aI0
aI0
aI0
aI0
aa(lp135
I1
aI1
aF0.17393829957055215
aF0.26317136141364156
aF0.234869748029384
aF0.17417843002138775
aI1
aI0
aI0
aI600
aI1
aI0
aI0
aI0
aI0
aI0
aI0
aI0
aI0
aI0
aI0
aI0
aI0
aI0
aI0
aI0
aI0
aI0
aI0
aI0
aI0
aI0
aI0
aI0
aI0
aI0
aI0
aI0
aI0
aI0
aI0
aI0
aI0
aI0
aI0
aI0
aa(lp136
I1
aI1
aI1
aI1
aI1
aI1
aI1
aI0
aI0
aI600
aI0
aI0
aI0
aI0
aI0
aI0
aI0
aI0
aI0
aI0
aI0
aI0
aI0
aI0
aI0
aI0
aI0
aI0
aI0
aI0
aI0
aI0
aI0
aI0
aI0
aI0
aI0
aI0
aI0
aI0
aI0
aI0
aI0
aI0
aI0
aI0
aa(lp137
VDenise removes 5 bananas from a jar. There were originally 46 bananas in the jar. How many bananas are left in the jar?\u000a
p138
aVJoyce starts with 75 apples. She gives 52 to Larry. How many apples does Joyce end with?\u000a
p139
aVAnne weighs 67 pounds. Douglas weighs 52 pounds. How much heavier is Anne than Douglas?\u000a
p140
aVCarlos starts with 39 bananas. 3 are eaten by a hippopotamus. How many bananas does Carlos end with?\u000a
p141
aVPatricia starts with 76 candies. Albert takes 5 away. How many candies does Patricia end with?\u000a
p142
aVThere are 13 oranges in a box. Victor takes 3 oranges. How many are left?\u000a
p143
aVRuby has 63 apples. Emily takes 55 away. How many apples will Ruby have?\u000a
p144
aVMeredith picked 347 apples. Phil ate 198 of the apples. How many apples are left?\u000a
p145
aVBeka flew 873 miles to visit her aunt. Jackson flew 563 miles to visit his aunt. How many more miles did Beka fly than Jackson?\u000a
p146
aVMary is baking a cake. The recipe wants 8 cups of flour. She already put in 2 cups. How many more cups does she need to add ?\u000a
p147
aVTom found 7 seashells, but 4 seashells were broken.  How many unbroken seashells did Tom find ?\u000a
p148
aVJoan has 8 orange balloons, but lost 2 of them. How many orange balloons does Joan have now ?\u000a
p149
aVFred had 7 dimes in his bank. His sister borrowed 3 of his dimes. How many dimes does Fred have now ?\u000a
p150
aVJoan's cat had 8 kittens. She gave 2 to her friends.  How many kittens does she have now ?\u000a
p151
aVBenny's high school played 39 baseball games this year. He attended  14 games. How many baseball games did Benny miss ?\u000a
p152
aVSam found 35 seashells on the beach, he gave Joan 18 of the seashells. How many seashells does he now have ?\u000a
p153
aVMike has 87 baseball cards. Sam bought 13 of Mike's  baseball cards. How many baseball cards does Mike have now ?\u000a
p154
aVDan has 64 violet marbles, he gave Mary 14 of the marbles. How many violet marbles does he now have ?\u000a
p155
aVSam had 98 pennies in his bank. He spent 93 of his pennies. How many pennies does he have now ?\u000a
p156
aVJoan found 79 seashells on the beach, she gave Mike 63 of the seashells. How many seashells does she now have ?\u000a
p157
aVMelanie's high school played 64 soccer games this year. She attended  32 games. How many soccer games did Melanie miss ?\u000a
p158
aVSally had 760 quarters in her bank. She spent 418 of her quarters. How many quarters does she have now ?\u000a
p159
aVFred's high school played 616 baseball games this year. He attended  147 games. How many baseball games did Fred miss ?\u000a
p160
aVJason has 676 Pokemon cards. Alyssa bought 224 of Jason's  Pokemon cards. How many Pokemon cards does Jason have now ?\u000a
p161
aVFred has 709 green balloons, he gave Sandy 221 of the balloons. How many green balloons does he now have ?\u000a
p162
aVJason has 3 Pokemon cards. Benny bought 2 of Jason's  Pokemon cards. How many Pokemon cards does Jason have now ?\u000a
p163
aVMike has 8 orange marbles, he gave Sam 4 of the marbles. How many orange marbles does he now have ?\u000a
p164
aVJoan had 5 dimes in her bank. She spent 2 of her dimes. How many dimes does she have now ?\u000a
p165
aVSam grew 4 watermelons, but the rabbits ate 3 watermelons. How many watermelons does Sam have left ?\u000a
p166
aVTom found 5 seashells on the beach. he gave Jessica 2 of the seashells. How many seashells does he now have ?\u000a
p167
aVFred has 5 baseball cards. Melanie bought 3 of Fred's  baseball cards. How many baseball cards does Fred have now ?\u000a
p168
aVhere are 9 oak trees currently in the park. Park workers had to cut down 2  oak trees that were damaged. How many oak trees will the park have when the workers are finished ?\u000a
p169
aVJessica had 8 quarters in her bank. Her sister borrowed 3 of her quarters. How many quarters does Jessica have now ?\u000a
p170
aVA restaurant made 9 hamburgers to serve during lunch. Only 3 were  actually served. How many hamburgers were left over from lunch ?\u000a
p171
aVThere are 7 crayons in the drawer. Mary took 3 crayons out of the drawer. How many crayons are there now ?\u000a
p172
aVDan picked 9 limes and gave Sara 4 of the limes.  How many limes does Dan have now ?\u000a
p173
aVDan found 7 seashells, but 3 were broken.  How many unbroken seashells did Dan find ?\u000a
p174
aVJoan has 9 blue balloons  but lost 2 of them. How many blue balloons does Joan have now ?\u000a
p175
aVJoan picked 43 apples from the orchard, and gave 27 apples  to  Melanie. How many apples does Joan have now ?\u000a
p176
aVAlyssa's high school played 31 hockey games this year. She attended  13 games. How many hockey games did Alyssa miss ?\u000a
p177
aVTom has 30 violet balloons, he gave Fred 16 of the balloons. How many violet balloons does he now have ?\u000a
p178
aVFred has 40 baseball cards. Keith bought 22 of Fred's  baseball cards. How many baseball cards does Fred have now ?\u000a
p179
aVFred found 47 seashells on the beach, he gave Jessica 25 of the seashells. How many seashells does he now have ?\u000a
p180
aVSara grew 43 pumpkins, but the rabbits ate 23 pumpkins. How many pumpkins does Sara have left ?\u000a
p181
aVJoan decided to sell all of her old books. She gathered up 33 books to sell. She sold 26 books in a yard sale. How many books does Joan now have ?\u000a
p182
aVThere are 46 rulers in the drawer. Tim took 25  rulers from the drawer. How many rulers are now in the drawer ?\u000a
p183
aVThere are 33 oak trees currently in the park. Park workers had to cut down  18 oak trees that were damaged. How many oak trees will be in the park when the workers are finished ?\u000a
p184
aVFirst museum she went to was the Metropolitan museum in New York. She donated 46 medieval art pieces from the 70 she originally has. How many medieval art pieces were left with her?\u000a
p185
aVThe next museum on her list is the Guggenheim in New York as well. There she gave 51 sets of Egyptian mask from her collection of 90. How many sets of masks were left in Alicia\ufffd\ufffd\ufffds collection?\u000a
p186
aVAfter New York, she decided to visit the Smithsonian in Washington DC. If she has 63 miniature aircrafts and she gave away 49 to the National Air and Space Museum, how many are left with her?\u000a
p187
aVJoan went to 4 football games this year. She went to 9 games last year. How many football games did Joan go to in all ?\u000a
p188
aVTom has 9 yellow balloons Sara has 8 yellow balloons. How many yellow balloons do they have in total ?\u000a
p189
aVThere are 4 walnut trees currently in the park. Park workers will plant 6 more walnut trees today. How many walnut trees will the park have when the workers are finished ?\u000a
p190
aVSam had 9 dimes in his bank. His dad gave him 7 more dimes. How many dimes does Sam have now ?\u000a
p191
aVA restaurant served 9 pizzas during lunch and 6 during dinner today. How many pizzas were served today ?\u000a
p192
aVThere are 2 pencils in the drawer. Tim placed 3 more pencils in the drawer. How many pencils are now there in total ?\u000a
p193
aVJoan found 6 seashells and Jessica found 8 seashells on the beach. How many seashells did they find together ?\u000a
p194
aVSandy grew 6 carrots. Sam grew 3 carrots. How many carrots did they grow in total ?\u000a
p195
aVBenny picked 2 apples and Dan picked 9 apples from the apple tree. How many apples were picked in total ?\u000a
p196
aVSam found 18 seashells and Mary found 47 seashells on the beach. How many seashells did they find together ?\u000a
p197
aVSara picked 45 pears and Sally picked 11 pears from the pear tree. How many pears were picked in total ?\u000a
p198
aVKeith has 20 books. Jason has 21 books.  How many books do they have together ?\u000a
p199
aVJason had 49 quarters in his bank. His dad gave him 25 more quarters. How many quarters does he have now ?\u000a
p200
aVJoan picked 37 oranges and Sara picked 10 oranges. How many oranges were picked in total ?\u000a
p201
aVFred went to 36 basketball games this year. He went to  11 games last year. How many basketball games did Fred go to in total ?\u000a
p202
aVThere are 33 pencils in the drawer. Joan placed  27 more pencils in the drawer. How many pencils are now there in total ?\u000a
p203
aVAnna starts with 5 candies. She gets 86 more from Larry. How many candies does Anna end with?\u000a
p204
aVIf there are 4 crayons in a box and Harold puts 15 more crayons inside, how many crayons are in the box?\u000a
p205
aVMartha has 2 peanuts. Joyce has 26 peanuts. If Joyce gives all of her peanuts to Martha, how many peanuts will Martha have?\u000a
p206
aVKevin starts with 7 cards. He finds another 47. How many cards does Kevin end with?\u000a
p207
aVNicholas starts with 8 bottle caps. He gets 85 more from Catherine. How many bottle caps does Nicholas end with?\u000a
p208
aVJanet has 57 apples. She finds another 95. How many apples does Janet have in all?\u000a
p209
aVNancy starts with 91 bottle caps. She finds another 88. How many bottle caps does Nancy end with?\u000a
p210
aVThere are 4 oranges. 73 oranges more are added. How many are there total?\u000a
p211
aVDan grew 42 turnips and 38 cantelopes. Jessica grew  47 turnips. How many turnips did they grow in total ?\u000a
p212
aVThere are 33 walnut trees currently in the park. Park workers will plant  44 more walnut trees today. How many walnut trees will the park have when the workers are finished ?\u000a
p213
aVSara had 21 quarters in her bank. Her dad gave her 49 more quarters. How many quarters does she have now ?\u000a
p214
aVThere are 41 pencils in the drawer. Mike placed 30 more  pencils in the drawer. How many pencils are now there in total ?\u000a
p215
aVJoan has 10 books. Tom has 38 books.  How many books do they have together ?\u000a
p216
aVJoan has 40 blue balloons Melanie has 41 blue balloons. How many blue balloons do they have in total ?\u000a
p217
aVFred grew 38 cantelopes. Tim grew 44 cantelopes. How many cantelopes did they grow in total ?\u000a
p218
aVSam went to 14 football games this year. He went to 29 games  last year. How many football games did Sam go to in all ?\u000a
p219
aVMary found 18 seashells and Jessica found 41 seashells on the beach. How many seashells did they find together ?\u000a
p220
aVYou have 24 cookies and want to share them equally with 6 people. How many cookies would each person get?\u000a
p221
aVYou are reading a book with 120 pages. If you want to read the same number of pages each night, how many would you have to read each night to finish in 10 days?\u000a
p222
aVA cereal box holds 18 cups of cereal. Each serving is 2 cups. How many servings are in the whole box?\u000a
p223
aVA box of books weighs 42 pounds. Each book weights 3 pounds. How many books are there in the box?\u000a
p224
aVSue\ufffd\ufffd\ufffds mother made 75 cookies. She put the cookies in bags, with 3 cookies in each bag. How many bags could she fill up?\u000a
p225
aVAn airplane hangar is 300 feet long. How many planes can fit into it, end to end, if each plane is 40 feet long?\u000a
p226
aVIt takes 3 eggs to make a cake. How many cakes can you make with 37 eggs?\u000a
p227
aV105 people are going to a movie. 6 people can ride in each car. How many cars are needed to get all 105 people to the movie?\u000a
p228
aVMs. Baker has 17 cupcakes. She wants to share them equally among her 3 children so that no one gets more than anyone else. If she gives each child as many cupcakes as possible, how many cupcakes will be left over for Ms. Baker to eat?\u000a
p229
aV89 cookies are being shared equally among 4 people. How many does each person get? \u000a
p230
aVDeborah is running a marathon. She can run 4 miles in an hour. How long will it take her to run 26 miles?\u000a
p231
aV256 students are going to the zoo. They have to be divided into groups so that each teacher has one group. There are 8 teachers. How many students will be in each group?\u000a
p232
aVA fruit farm packs oranges in boxes that hold 10 each. One day it packs 2650 oranges. How many boxes did they use?\u000a
p233
aVYou want to give your baseball cards to your 5 best friends. You have 455 baseball cards. How many would each get, if you share them equally?\u000a
p234
aVMike has 45 dollars in 5 dollar bills.  How many 5 dollars bills does  he have ?\u000a
p235
aVA restaurant sold 63 hamburgers last 7 days. How many hamburgers on average were sold each day ?\u000a
p236
aVDan was at the beach for 5 days and found 36 seashells. He plans to give all of his seashells equally to his 4 friends. How many seashells will each friend get ?\u000a
p237
aVSandy worked 45 hours in the last 5 days. Assuming that she worked the same amount of hours each day, how long did she work each day ?\u000a
p238
aVThere were a total of 27 soccer games during the 3 month season.  If the games are equally divided, how many soccer games are played a month ?\u000a
p239
aVThere are 390 students at a school. If each classroom holds 30 students, how many classrooms are needed at the school?\u000a
p240
aVNancy bought 615 crayons that came in packs of 15.  How many packs of crayons did Nancy buy?\u000a
p241
aVA teacher has 344 pieces of candy. If there are 43 students, and the candy is divided evenly, How many pieces will each student get?\u000a
p242
aVShe counted her crayons and found out that she has 80 crayons which she will place in crayon boxes. Every crayon box can contain 8 crayons. How many crayon boxes does she need?\u000a
p243
aVBeside the pile of clean white paper was a stack of 700 sheets of used paper. She wants to place it in boxes for recycling. If every box can contain 100 sheets, how many boxes does she need?\u000a
p244
aVLexie\ufffd\ufffd\ufffds younger brother helped pick up all the paper clips in Lexie\ufffd\ufffd\ufffds room. He was able to collect 81 paper clips. If he wants to distribute the paper clips in 9 boxes, how many paper clips will each box contain?\u000a
p245
aVWhen relatives visit Haley and her family, she and her cousins do origami. If she has 48 origami papers to give away to her 6 cousins, how many will each receive if she gives everyone the same number of origami papers?\u000a
p246
aVHaley has 63 magazines in her cabinet. She plans to send it to the recycling office in their area. If she places it in boxes which can contain 9 magazines, how many boxes will she use?\u000a
p247
aVEllen went to a garage sale to buy chairs. Each chair cost 15 dollars. How much money did Ellen spend for the 12 chairs she bought?\u000a
p248
aVThree-toed sloths have 4 legs. How many toes would 25 sloths have?\u000a
p249
aVAlbert has two snakes. The garden snake is 10 inches long. The boaconstrictor is 7 times longer than the garden snake. How long is the boaconstrictor?\u000a
p250
aVAlbert\ufffd\ufffd\ufffds cabbage patch has 12 rows of cabbage. In each row, there are 15 heads of cabbage. How many heads of cabbage does Albert have in all?\u000a
p251
aVMarie can bike at a speed of 12 miles an hour. How far can she bike in 31 hours?\u000a
p252
aVTammy drove 55 miles in one hour. At that rate, how far can she drive in 36 hours?\u000a
p253
aVJeff swims 20 laps every day. How many laps will he swim in 6 7 dayss?\u000a
p254
aVIt takes 4 apples to make 1 pie. How many apples does it take to make 504 pies?\u000a
p255
aVFrank worked 8 hours on the first 4 days of the 7 days. How many hours did he work in these 4 days?\u000a
p256
aVSue\ufffd\ufffd\ufffds family went on vacation. Her mom drove the car at 60 mph. They camped at a campground after traveling for 5 hours. How far was the campground from their home?\u000a
p257
aVBrett drove 55 miles every hour. How many miles would he drive in 8 hours?\u000a
p258
aVA perfect score is 21 points. How many points would you have after 3 perfect games in a row?\u000a
p259
aVBrian\ufffd\ufffd\ufffds car gets 20 miles per gallon. On his last trip, he used 3 gallons of gas. How many miles did he travel on his last trip?\u000a
p260
aVEach cup contains 8 ounces. How many ounces are in 33 cups?\u000a
p261
aVA chocolate chip cookie recipe calls for 2 cups of chocolate chips. You want to make 23 recipes for a bake sale. How many cups of chocolate chips will be needed to make all the cookie recipes?\u000a
p262
aVI have a pet golden retriever. Each year he gains 11 pounds. He is 8 years old. How many pounds does he weigh?\u000a
p263
aVMary\ufffd\ufffd\ufffds car gets 20 miles per gallon of gas. How far can she drive on 14 gallons of gas?\u000a
p264
aVI walked 2 miles in 1 hour for Relay for Life. If I maintained this pace for the 8 hours I walk, how many miles total will I walk?\u000a
p265
aVI walk 1 mile every 15 minutes. I walked 3 miles. How many minutes did it take me to walk 3 miles?\u000a
p266
aVThere are 365 days in one year. How many days are in 12 years?\u000a
p267
aVLansing has 25 elementary schools. There are 247 students in each school. How many elementary students are there altogether in Lansing?\u000a
p268
aVRobin has 3 packages of gum. There are 18 pieces in each package. How many pieces of gum does Robin have?\u000a
p269
aVArthur baked 115 muffins. James baked 12 times as many. How many muffins did James bake?\u000a
p270
atp271
sS'*'
p272
((lp273
g87
ag88
ag89
ag90
ag91
ag92
ag93
ag94
ag95
ag96
ag97
ag98
ag99
ag100
ag101
ag102
ag103
ag104
ag105
ag106
ag107
ag108
ag109
ag110
ag111
ag112
ag113
ag114
ag115
ag116
ag117
ag118
ag119
ag120
ag121
ag122
ag123
ag124
ag125
ag126
ag127
ag128
ag129
ag130
ag131
ag132
ag133
ag134
ag135
ag136
a(lp274
g3
ag4
ag5
ag6
ag7
ag8
ag9
ag10
ag11
ag12
ag13
ag14
ag15
ag16
ag17
ag18
ag19
ag20
ag21
ag22
ag23
ag24
ag25
ag26
ag27
ag28
ag29
ag30
ag31
ag32
ag33
ag34
ag35
ag36
ag37
ag38
ag39
ag40
ag41
ag42
ag43
ag44
ag45
ag46
ag47
ag48
ag49
ag50
ag51
ag52
ag53
ag54
ag55
ag56
ag57
ag58
ag59
ag60
ag61
ag62
ag63
ag64
ag65
ag66
ag67
ag68
ag69
ag70
ag71
ag72
ag73
ag74
ag75
ag76
ag77
ag78
ag79
ag80
ag81
ag82
ag83
ag84
ag85
a(lp275
VDenise removes 5 bananas from a jar. There were originally 46 bananas in the jar. How many bananas are left in the jar?\u000a
p276
aVJoyce starts with 75 apples. She gives 52 to Larry. How many apples does Joyce end with?\u000a
p277
aVAnne weighs 67 pounds. Douglas weighs 52 pounds. How much heavier is Anne than Douglas?\u000a
p278
aVCarlos starts with 39 bananas. 3 are eaten by a hippopotamus. How many bananas does Carlos end with?\u000a
p279
aVPatricia starts with 76 candies. Albert takes 5 away. How many candies does Patricia end with?\u000a
p280
aVThere are 13 oranges in a box. Victor takes 3 oranges. How many are left?\u000a
p281
aVRuby has 63 apples. Emily takes 55 away. How many apples will Ruby have?\u000a
p282
aVMeredith picked 347 apples. Phil ate 198 of the apples. How many apples are left?\u000a
p283
aVBeka flew 873 miles to visit her aunt. Jackson flew 563 miles to visit his aunt. How many more miles did Beka fly than Jackson?\u000a
p284
aVMary is baking a cake. The recipe wants 8 cups of flour. She already put in 2 cups. How many more cups does she need to add ?\u000a
p285
aVTom found 7 seashells, but 4 seashells were broken.  How many unbroken seashells did Tom find ?\u000a
p286
aVJoan has 8 orange balloons, but lost 2 of them. How many orange balloons does Joan have now ?\u000a
p287
aVFred had 7 dimes in his bank. His sister borrowed 3 of his dimes. How many dimes does Fred have now ?\u000a
p288
aVJoan's cat had 8 kittens. She gave 2 to her friends.  How many kittens does she have now ?\u000a
p289
aVBenny's high school played 39 baseball games this year. He attended  14 games. How many baseball games did Benny miss ?\u000a
p290
aVSam found 35 seashells on the beach, he gave Joan 18 of the seashells. How many seashells does he now have ?\u000a
p291
aVMike has 87 baseball cards. Sam bought 13 of Mike's  baseball cards. How many baseball cards does Mike have now ?\u000a
p292
aVDan has 64 violet marbles, he gave Mary 14 of the marbles. How many violet marbles does he now have ?\u000a
p293
aVSam had 98 pennies in his bank. He spent 93 of his pennies. How many pennies does he have now ?\u000a
p294
aVJoan found 79 seashells on the beach, she gave Mike 63 of the seashells. How many seashells does she now have ?\u000a
p295
aVMelanie's high school played 64 soccer games this year. She attended  32 games. How many soccer games did Melanie miss ?\u000a
p296
aVSally had 760 quarters in her bank. She spent 418 of her quarters. How many quarters does she have now ?\u000a
p297
aVFred's high school played 616 baseball games this year. He attended  147 games. How many baseball games did Fred miss ?\u000a
p298
aVJason has 676 Pokemon cards. Alyssa bought 224 of Jason's  Pokemon cards. How many Pokemon cards does Jason have now ?\u000a
p299
aVFred has 709 green balloons, he gave Sandy 221 of the balloons. How many green balloons does he now have ?\u000a
p300
aVJason has 3 Pokemon cards. Benny bought 2 of Jason's  Pokemon cards. How many Pokemon cards does Jason have now ?\u000a
p301
aVMike has 8 orange marbles, he gave Sam 4 of the marbles. How many orange marbles does he now have ?\u000a
p302
aVJoan had 5 dimes in her bank. She spent 2 of her dimes. How many dimes does she have now ?\u000a
p303
aVSam grew 4 watermelons, but the rabbits ate 3 watermelons. How many watermelons does Sam have left ?\u000a
p304
aVTom found 5 seashells on the beach. he gave Jessica 2 of the seashells. How many seashells does he now have ?\u000a
p305
aVFred has 5 baseball cards. Melanie bought 3 of Fred's  baseball cards. How many baseball cards does Fred have now ?\u000a
p306
aVhere are 9 oak trees currently in the park. Park workers had to cut down 2  oak trees that were damaged. How many oak trees will the park have when the workers are finished ?\u000a
p307
aVJessica had 8 quarters in her bank. Her sister borrowed 3 of her quarters. How many quarters does Jessica have now ?\u000a
p308
aVA restaurant made 9 hamburgers to serve during lunch. Only 3 were  actually served. How many hamburgers were left over from lunch ?\u000a
p309
aVThere are 7 crayons in the drawer. Mary took 3 crayons out of the drawer. How many crayons are there now ?\u000a
p310
aVDan picked 9 limes and gave Sara 4 of the limes.  How many limes does Dan have now ?\u000a
p311
aVDan found 7 seashells, but 3 were broken.  How many unbroken seashells did Dan find ?\u000a
p312
aVJoan has 9 blue balloons  but lost 2 of them. How many blue balloons does Joan have now ?\u000a
p313
aVJoan picked 43 apples from the orchard, and gave 27 apples  to  Melanie. How many apples does Joan have now ?\u000a
p314
aVAlyssa's high school played 31 hockey games this year. She attended  13 games. How many hockey games did Alyssa miss ?\u000a
p315
aVTom has 30 violet balloons, he gave Fred 16 of the balloons. How many violet balloons does he now have ?\u000a
p316
aVFred has 40 baseball cards. Keith bought 22 of Fred's  baseball cards. How many baseball cards does Fred have now ?\u000a
p317
aVFred found 47 seashells on the beach, he gave Jessica 25 of the seashells. How many seashells does he now have ?\u000a
p318
aVSara grew 43 pumpkins, but the rabbits ate 23 pumpkins. How many pumpkins does Sara have left ?\u000a
p319
aVJoan decided to sell all of her old books. She gathered up 33 books to sell. She sold 26 books in a yard sale. How many books does Joan now have ?\u000a
p320
aVThere are 46 rulers in the drawer. Tim took 25  rulers from the drawer. How many rulers are now in the drawer ?\u000a
p321
aVThere are 33 oak trees currently in the park. Park workers had to cut down  18 oak trees that were damaged. How many oak trees will be in the park when the workers are finished ?\u000a
p322
aVFirst museum she went to was the Metropolitan museum in New York. She donated 46 medieval art pieces from the 70 she originally has. How many medieval art pieces were left with her?\u000a
p323
aVThe next museum on her list is the Guggenheim in New York as well. There she gave 51 sets of Egyptian mask from her collection of 90. How many sets of masks were left in Alicia\ufffd\ufffd\ufffds collection?\u000a
p324
aVAfter New York, she decided to visit the Smithsonian in Washington DC. If she has 63 miniature aircrafts and she gave away 49 to the National Air and Space Museum, how many are left with her?\u000a
p325
aVJoan went to 4 football games this year. She went to 9 games last year. How many football games did Joan go to in all ?\u000a
p326
aVTom has 9 yellow balloons Sara has 8 yellow balloons. How many yellow balloons do they have in total ?\u000a
p327
aVThere are 4 walnut trees currently in the park. Park workers will plant 6 more walnut trees today. How many walnut trees will the park have when the workers are finished ?\u000a
p328
aVSam had 9 dimes in his bank. His dad gave him 7 more dimes. How many dimes does Sam have now ?\u000a
p329
aVA restaurant served 9 pizzas during lunch and 6 during dinner today. How many pizzas were served today ?\u000a
p330
aVThere are 2 pencils in the drawer. Tim placed 3 more pencils in the drawer. How many pencils are now there in total ?\u000a
p331
aVJoan found 6 seashells and Jessica found 8 seashells on the beach. How many seashells did they find together ?\u000a
p332
aVSandy grew 6 carrots. Sam grew 3 carrots. How many carrots did they grow in total ?\u000a
p333
aVBenny picked 2 apples and Dan picked 9 apples from the apple tree. How many apples were picked in total ?\u000a
p334
aVSam found 18 seashells and Mary found 47 seashells on the beach. How many seashells did they find together ?\u000a
p335
aVSara picked 45 pears and Sally picked 11 pears from the pear tree. How many pears were picked in total ?\u000a
p336
aVKeith has 20 books. Jason has 21 books.  How many books do they have together ?\u000a
p337
aVJason had 49 quarters in his bank. His dad gave him 25 more quarters. How many quarters does he have now ?\u000a
p338
aVJoan picked 37 oranges and Sara picked 10 oranges. How many oranges were picked in total ?\u000a
p339
aVFred went to 36 basketball games this year. He went to  11 games last year. How many basketball games did Fred go to in total ?\u000a
p340
aVThere are 33 pencils in the drawer. Joan placed  27 more pencils in the drawer. How many pencils are now there in total ?\u000a
p341
aVAnna starts with 5 candies. She gets 86 more from Larry. How many candies does Anna end with?\u000a
p342
aVIf there are 4 crayons in a box and Harold puts 15 more crayons inside, how many crayons are in the box?\u000a
p343
aVMartha has 2 peanuts. Joyce has 26 peanuts. If Joyce gives all of her peanuts to Martha, how many peanuts will Martha have?\u000a
p344
aVKevin starts with 7 cards. He finds another 47. How many cards does Kevin end with?\u000a
p345
aVNicholas starts with 8 bottle caps. He gets 85 more from Catherine. How many bottle caps does Nicholas end with?\u000a
p346
aVJanet has 57 apples. She finds another 95. How many apples does Janet have in all?\u000a
p347
aVNancy starts with 91 bottle caps. She finds another 88. How many bottle caps does Nancy end with?\u000a
p348
aVThere are 4 oranges. 73 oranges more are added. How many are there total?\u000a
p349
aVDan grew 42 turnips and 38 cantelopes. Jessica grew  47 turnips. How many turnips did they grow in total ?\u000a
p350
aVThere are 33 walnut trees currently in the park. Park workers will plant  44 more walnut trees today. How many walnut trees will the park have when the workers are finished ?\u000a
p351
aVSara had 21 quarters in her bank. Her dad gave her 49 more quarters. How many quarters does she have now ?\u000a
p352
aVThere are 41 pencils in the drawer. Mike placed 30 more  pencils in the drawer. How many pencils are now there in total ?\u000a
p353
aVJoan has 10 books. Tom has 38 books.  How many books do they have together ?\u000a
p354
aVJoan has 40 blue balloons Melanie has 41 blue balloons. How many blue balloons do they have in total ?\u000a
p355
aVFred grew 38 cantelopes. Tim grew 44 cantelopes. How many cantelopes did they grow in total ?\u000a
p356
aVSam went to 14 football games this year. He went to 29 games  last year. How many football games did Sam go to in all ?\u000a
p357
aVMary found 18 seashells and Jessica found 41 seashells on the beach. How many seashells did they find together ?\u000a
p358
aVYou have 24 cookies and want to share them equally with 6 people. How many cookies would each person get?\u000a
p359
aVYou are reading a book with 120 pages. If you want to read the same number of pages each night, how many would you have to read each night to finish in 10 days?\u000a
p360
aVA cereal box holds 18 cups of cereal. Each serving is 2 cups. How many servings are in the whole box?\u000a
p361
aVA box of books weighs 42 pounds. Each book weights 3 pounds. How many books are there in the box?\u000a
p362
aVSue\ufffd\ufffd\ufffds mother made 75 cookies. She put the cookies in bags, with 3 cookies in each bag. How many bags could she fill up?\u000a
p363
aVAn airplane hangar is 300 feet long. How many planes can fit into it, end to end, if each plane is 40 feet long?\u000a
p364
aVIt takes 3 eggs to make a cake. How many cakes can you make with 37 eggs?\u000a
p365
aV105 people are going to a movie. 6 people can ride in each car. How many cars are needed to get all 105 people to the movie?\u000a
p366
aVMs. Baker has 17 cupcakes. She wants to share them equally among her 3 children so that no one gets more than anyone else. If she gives each child as many cupcakes as possible, how many cupcakes will be left over for Ms. Baker to eat?\u000a
p367
aV89 cookies are being shared equally among 4 people. How many does each person get? \u000a
p368
aVDeborah is running a marathon. She can run 4 miles in an hour. How long will it take her to run 26 miles?\u000a
p369
aV256 students are going to the zoo. They have to be divided into groups so that each teacher has one group. There are 8 teachers. How many students will be in each group?\u000a
p370
aVA fruit farm packs oranges in boxes that hold 10 each. One day it packs 2650 oranges. How many boxes did they use?\u000a
p371
aVYou want to give your baseball cards to your 5 best friends. You have 455 baseball cards. How many would each get, if you share them equally?\u000a
p372
aVMike has 45 dollars in 5 dollar bills.  How many 5 dollars bills does  he have ?\u000a
p373
aVA restaurant sold 63 hamburgers last 7 days. How many hamburgers on average were sold each day ?\u000a
p374
aVDan was at the beach for 5 days and found 36 seashells. He plans to give all of his seashells equally to his 4 friends. How many seashells will each friend get ?\u000a
p375
aVSandy worked 45 hours in the last 5 days. Assuming that she worked the same amount of hours each day, how long did she work each day ?\u000a
p376
aVThere were a total of 27 soccer games during the 3 month season.  If the games are equally divided, how many soccer games are played a month ?\u000a
p377
aVThere are 390 students at a school. If each classroom holds 30 students, how many classrooms are needed at the school?\u000a
p378
aVNancy bought 615 crayons that came in packs of 15.  How many packs of crayons did Nancy buy?\u000a
p379
aVA teacher has 344 pieces of candy. If there are 43 students, and the candy is divided evenly, How many pieces will each student get?\u000a
p380
aVShe counted her crayons and found out that she has 80 crayons which she will place in crayon boxes. Every crayon box can contain 8 crayons. How many crayon boxes does she need?\u000a
p381
aVBeside the pile of clean white paper was a stack of 700 sheets of used paper. She wants to place it in boxes for recycling. If every box can contain 100 sheets, how many boxes does she need?\u000a
p382
aVLexie\ufffd\ufffd\ufffds younger brother helped pick up all the paper clips in Lexie\ufffd\ufffd\ufffds room. He was able to collect 81 paper clips. If he wants to distribute the paper clips in 9 boxes, how many paper clips will each box contain?\u000a
p383
aVWhen relatives visit Haley and her family, she and her cousins do origami. If she has 48 origami papers to give away to her 6 cousins, how many will each receive if she gives everyone the same number of origami papers?\u000a
p384
aVHaley has 63 magazines in her cabinet. She plans to send it to the recycling office in their area. If she places it in boxes which can contain 9 magazines, how many boxes will she use?\u000a
p385
aVEllen went to a garage sale to buy chairs. Each chair cost 15 dollars. How much money did Ellen spend for the 12 chairs she bought?\u000a
p386
aVThree-toed sloths have 4 legs. How many toes would 25 sloths have?\u000a
p387
aVAlbert has two snakes. The garden snake is 10 inches long. The boaconstrictor is 7 times longer than the garden snake. How long is the boaconstrictor?\u000a
p388
aVAlbert\ufffd\ufffd\ufffds cabbage patch has 12 rows of cabbage. In each row, there are 15 heads of cabbage. How many heads of cabbage does Albert have in all?\u000a
p389
aVMarie can bike at a speed of 12 miles an hour. How far can she bike in 31 hours?\u000a
p390
aVTammy drove 55 miles in one hour. At that rate, how far can she drive in 36 hours?\u000a
p391
aVJeff swims 20 laps every day. How many laps will he swim in 6 7 dayss?\u000a
p392
aVIt takes 4 apples to make 1 pie. How many apples does it take to make 504 pies?\u000a
p393
aVFrank worked 8 hours on the first 4 days of the 7 days. How many hours did he work in these 4 days?\u000a
p394
aVSue\ufffd\ufffd\ufffds family went on vacation. Her mom drove the car at 60 mph. They camped at a campground after traveling for 5 hours. How far was the campground from their home?\u000a
p395
aVBrett drove 55 miles every hour. How many miles would he drive in 8 hours?\u000a
p396
aVA perfect score is 21 points. How many points would you have after 3 perfect games in a row?\u000a
p397
aVBrian\ufffd\ufffd\ufffds car gets 20 miles per gallon. On his last trip, he used 3 gallons of gas. How many miles did he travel on his last trip?\u000a
p398
aVEach cup contains 8 ounces. How many ounces are in 33 cups?\u000a
p399
aVA chocolate chip cookie recipe calls for 2 cups of chocolate chips. You want to make 23 recipes for a bake sale. How many cups of chocolate chips will be needed to make all the cookie recipes?\u000a
p400
aVI have a pet golden retriever. Each year he gains 11 pounds. He is 8 years old. How many pounds does he weigh?\u000a
p401
aVMary\ufffd\ufffd\ufffds car gets 20 miles per gallon of gas. How far can she drive on 14 gallons of gas?\u000a
p402
aVI walked 2 miles in 1 hour for Relay for Life. If I maintained this pace for the 8 hours I walk, how many miles total will I walk?\u000a
p403
aVI walk 1 mile every 15 minutes. I walked 3 miles. How many minutes did it take me to walk 3 miles?\u000a
p404
aVThere are 365 days in one year. How many days are in 12 years?\u000a
p405
aVLansing has 25 elementary schools. There are 247 students in each school. How many elementary students are there altogether in Lansing?\u000a
p406
aVRobin has 3 packages of gum. There are 18 pieces in each package. How many pieces of gum does Robin have?\u000a
p407
aVArthur baked 115 muffins. James baked 12 times as many. How many muffins did James bake?\u000a
p408
atp409
s.