(dp0
S'+'
p1
((lp2
(lp3
I1
aI1
aF0.16133424034626279
aI0
aI1
aI0
aI1
aI1
aI0
aI0
aa(lp4
I1
aI1
aF0.16133424034626279
aI1
aI1
aI1
aI1
aI1
aI0
aI0
aa(lp5
I1
aI1
aF0.16133424034626279
aI0
aF0.6264764452700349
aI0
aF0.17417843002138775
aI1
aI0
aI0
aa(lp6
I1
aI1
aF0.16133424034626279
aF0.16133424034626279
aF0.16552921271687415
aI0
aI0
aI1
aI0
aI0
aa(lp7
I1
aI1
aF0.16133424034626279
aI1
aI1
aI1
aI1
aI1
aI0
aI0
aa(lp8
I1
aI1
aF0.16133424034626279
aI0
aF0.2509060962922141
aI0
aF0.17417843002138775
aI1
aI0
aI0
aa(lp9
I1
aI1
aF0.16133424034626279
aI1
aI1
aI1
aI1
aI1
aI0
aI0
aa(lp10
I1
aI1
aF0.16133424034626279
aI0
aI0
aI0
aI0
aI1
aI0
aI0
aa(lp11
I1
aI1
aF0.16133424034626279
aI1
aI1
aI1
aI1
aI1
aI0
aI0
aa(lp12
I1
aI1
aI1
aI1
aI1
aI1
aI1
aI1
aI0
aI0
aa(lp13
I1
aI1
aI1
aI1
aI1
aI1
aI1
aI1
aI0
aI0
aa(lp14
I1
aI1
aF0.14623139763227275
aI0
aI0
aI0
aI0
aI1
aI0
aI0
aa(lp15
I1
aI1
aI1
aF0.14806628988686296
aF0.16552921271687415
aI0
aI0
aI1
aI0
aI0
aa(lp16
I1
aI1
aI1
aI1
aI1
aI1
aI1
aI1
aI0
aI0
aa(lp17
I1
aI1
aI1
aI0
aI1
aI0
aI1
aI1
aI0
aI0
aa(lp18
I1
aI1
aI1
aI0
aF0.2509060962922141
aI0
aF0.17417843002138775
aI1
aI0
aI0
aa(lp19
I1
aI1
aI1
aI1
aI1
aI1
aI1
aI1
aI0
aI0
aa(lp20
I1
aI1
aF0.17393829957055215
aI1
aI1
aI0
aI1
aI1
aI0
aI0
aa(lp21
I1
aI1
aF0.17393829957055215
aI0
aI0
aI0
aI0
aI1
aI0
aI0
aa(lp22
I1
aI1
aI1
aI1
aI1
aI1
aI1
aI1
aI0
aI0
aa(lp23
I1
aI1
aI1
aI1
aI1
aI1
aI1
aI1
aI0
aI0
aa(lp24
I1
aI1
aI1
aI1
aI1
aI1
aI1
aI1
aI0
aI0
aa(lp25
I1
aI1
aI1
aI1
aI1
aI1
aI1
aI1
aI0
aI0
aa(lp26
I1
aI1
aI1
aI0
aF0.19913640292796592
aI0
aI0
aI1
aI0
aI0
aa(lp27
I1
aI0
aI1
aI0
aI1
aI1
aI1
aI1
aI0
aI0
aa(lp28
I1
aI1
aI1
aI0
aF0.6264764452700349
aI0
aF0.17417843002138775
aI1
aI0
aI0
aa(lp29
I1
aI1
aI1
aI1
aI1
aI1
aI1
aI1
aI0
aI0
aa(lp30
I1
aI1
aI1
aI0
aF0.2509060962922141
aI0
aF0.17417843002138775
aI1
aI0
aI0
aa(lp31
I1
aI1
aI1
aI0
aI0
aI0
aI0
aI1
aI0
aI0
aa(lp32
I1
aI1
aI1
aI1
aI1
aI1
aI1
aI1
aI0
aI0
aa(lp33
I1
aI1
aI1
aI0
aI0
aI0
aI0
aI1
aI0
aI0
aa(lp34
I1
aF0.555013148927839
aF0.14623139763227275
aI0
aI1
aI0
aI1
aI1
aI0
aI0
aa(lp35
I1
aI1
aI1
aI1
aI1
aI1
aI1
aI1
aI0
aI0
aa(lp36
(lp37
I1
aI1
aI1
aI1
aI1
aI0
aI1
aI1
aI0
aI0
aa(lp38
I1
aI1
aI1
aI1
aI1
aI1
aI1
aI1
aI0
aI0
aa(lp39
I1
aF0.1675187991745242
aI1
aI0
aI0
aI0
aI0
aI1
aI0
aI0
aa(lp40
I1
aI1
aI1
aI1
aI1
aI1
aI1
aI1
aI0
aI0
aa(lp41
I1
aI1
aI1
aI1
aI1
aI1
aI1
aI1
aI0
aI0
aa(lp42
I1
aI1
aF0.17393829957055215
aF0.17393829957055215
aF0.19436771392667943
aI0
aF0.17417843002138775
aI1
aI0
aI0
aa(lp43
I1
aI1
aI1
aI1
aI1
aI1
aI1
aI1
aI0
aI0
aa(lp44
I1
aI1
aI1
aI1
aI1
aI1
aI1
aI1
aI0
aI0
aa(lp45
I1
aI1
aI1
aI0
aI0
aI0
aI0
aI1
aI0
aI0
aa(lp46
I1
aI1
aF0.16133424034626279
aF0.16133424034626279
aI1
aI0
aI1
aI1
aI0
aI0
aa(lp47
I1
aI1
aF0.16133424034626279
aI1
aI1
aI1
aI1
aI1
aI0
aI0
aa(lp48
I1
aI1
aF0.16133424034626279
aI1
aI1
aI1
aI1
aI1
aI0
aI0
aa(lp49
I1
aI1
aF0.16133424034626279
aI1
aI1
aI1
aI1
aI1
aI0
aI0
aa(lp50
I1
aI1
aF0.16133424034626279
aI1
aI1
aI1
aI1
aI1
aI0
aI0
aa(lp51
I1
aF0.555013148927839
aI1
aF0.1866414639759795
aI1
aI0
aI0
aI1
aI0
aI0
aa(lp52
I1
aI1
aI1
aI1
aI1
aI0
aI1
aI1
aI0
aI0
aa(lp53
I1
aI1
aI1
aI1
aI1
aI1
aI1
aI1
aI0
aI0
aa(lp54
I1
aI1
aI1
aI1
aI1
aI0
aI1
aI1
aI0
aI0
aa(lp55
I1
aI1
aI1
aI1
aI1
aI1
aI1
aI1
aI0
aI0
aa(lp56
I1
aI1
aI1
aI1
aI1
aI0
aI1
aI1
aI0
aI0
aa(lp57
I1
aI1
aI1
aI1
aI1
aI0
aI0
aI1
aI0
aI0
aa(lp58
I1
aI1
aI1
aI1
aI1
aI1
aI1
aI1
aI0
aI0
aa(lp59
I1
aI1
aI1
aF0.23058976593992853
aI1
aI0
aI0
aI1
aI0
aI0
aa(lp60
I1
aI1
aI1
aI1
aI1
aI1
aI1
aI1
aI0
aI0
aa(lp61
I1
aI1
aI1
aI1
aI1
aI0
aI1
aI1
aI0
aI0
aa(lp62
I1
aI1
aF0.16133424034626279
aI1
aI1
aI1
aI1
aI1
aI0
aI0
aa(lp63
I1
aI1
aF0.16133424034626279
aI1
aI1
aI0
aI1
aI1
aI0
aI0
aa(lp64
I1
aI1
aF0.16133424034626279
aI1
aI1
aI1
aI1
aI1
aI0
aI0
aa(lp65
I1
aI1
aF0.16133424034626279
aI1
aI1
aI1
aI1
aI1
aI0
aI0
aa(lp66
I1
aI1
aF0.16133424034626279
aI1
aI1
aI1
aI1
aI1
aI0
aI0
aa(lp67
I1
aI1
aF0.16133424034626279
aI1
aI1
aI1
aI1
aI1
aI0
aI0
aa(lp68
I1
aI1
aF0.16133424034626279
aI0
aF0.2743844911127874
aI0
aF0.17417843002138775
aI1
aI0
aI0
aa(lp69
I1
aI1
aF0.16133424034626279
aI1
aI1
aI1
aI1
aI1
aI0
aI0
aa(lp70
I1
aI1
aF0.16133424034626279
aI1
aI1
aI1
aI1
aI1
aI0
aI0
aa(lp71
I1
aI1
aF0.16133424034626279
aI0
aI1
aI0
aI1
aI1
aI0
aI0
aa(lp72
I1
aI1
aF0.16133424034626279
aI1
aI1
aI0
aI1
aI1
aI0
aI0
aa(lp73
I1
aI1
aF0.16133424034626279
aI1
aI1
aI1
aI1
aI1
aI0
aI0
aa(lp74
I1
aI1
aF0.16133424034626279
aI1
aI1
aI1
aI1
aI1
aI0
aI0
aa(lp75
I1
aI1
aI1
aI1
aI1
aI1
aI1
aI1
aI0
aI0
aa(lp76
I1
aI1
aI1
aF0.1866414639759795
aI1
aI0
aI0
aI1
aI0
aI0
aa(lp77
I1
aI1
aF0.14623139763227275
aI1
aI1
aI0
aI1
aI1
aI0
aI0
aa(lp78
I1
aI1
aF0.14623139763227275
aI1
aI1
aI1
aI1
aI1
aI0
aI0
aa(lp79
I1
aI1
aI1
aI1
aI1
aI0
aI1
aI1
aI0
aI0
aa(lp80
I1
aI1
aI1
aI1
aI1
aI1
aI1
aI1
aI0
aI0
aa(lp81
I1
aI0
aI1
aI0
aF0.26317136141364156
aI0
aI0
aI1
aI0
aI0
aa(lp82
I1
aI1
aI1
aI0
aF0.19436771392667943
aI0
aF0.17417843002138775
aI1
aI0
aI0
aa(lp83
I1
aI1
aI1
aI0
aF0.2509060962922141
aI0
aF0.17417843002138775
aI1
aI0
aI0
aa(lp84
I1
aI1
aI1
aI1
aI1
aI1
aI1
aI1
aI0
aI0
aa(lp85
I1
aI1
aI1
aI1
aI1
aI1
aI1
aI1
aI0
aI0
aa(lp86
I1
aI1
aI1
aI1
aI1
aI1
aI1
aI1
aI0
aI0
aatp87
sS'*'
p88
((lp89
g37
ag38
ag39
ag40
ag41
ag42
ag43
ag44
ag45
ag46
ag47
ag48
ag49
ag50
ag51
ag52
ag53
ag54
ag55
ag56
ag57
ag58
ag59
ag60
ag61
ag62
ag63
ag64
ag65
ag66
ag67
ag68
ag69
ag70
ag71
ag72
ag73
ag74
ag75
ag76
ag77
ag78
ag79
ag80
ag81
ag82
ag83
ag84
ag85
ag86
a(lp90
g3
ag4
ag5
ag6
ag7
ag8
ag9
ag10
ag11
ag12
ag13
ag14
ag15
ag16
ag17
ag18
ag19
ag20
ag21
ag22
ag23
ag24
ag25
ag26
ag27
ag28
ag29
ag30
ag31
ag32
ag33
ag34
ag35
atp91
s.