(dp0
S'+'
p1
((lp2
(lp3
I1
aI1
aF0.16133424034626279
aI1
aI0
aI1
aI1
aI0
aI0
aI600
aI0
aI0
aI0
aI0
aI0
aI0
aI0
aI0
aI0
aI0
aI0
aI0
aI0
aI0
aI0
aI0
aI0
aI0
aI0
aI0
aI0
aI0
aI1
aI0
aI0
aI0
aI0
aI0
aI0
aI0
aI0
aI0
aI0
aI0
aI0
aI0
aa(lp4
I1
aI1
aF0.16133424034626279
aI1
aI1
aI1
aI1
aI0
aI0
aI600
aI0
aI0
aI0
aI0
aI0
aI0
aI0
aI0
aI0
aI0
aI0
aI0
aI0
aI0
aI0
aI0
aI0
aI0
aI0
aI0
aI0
aI0
aI0
aI0
aI0
aI1
aI0
aI0
aI0
aI0
aI0
aI0
aI0
aI0
aI0
aI0
aa(lp5
I1
aI1
aF0.16133424034626279
aF0.6264764452700349
aI0
aF0.17417843002138775
aI1
aI0
aI0
aI600
aI0
aI0
aI0
aI0
aI0
aI0
aI0
aI0
aI1
aI0
aI0
aI0
aI0
aI0
aI0
aI0
aI0
aI0
aI0
aI0
aI0
aI0
aI0
aI0
aI0
aI0
aI0
aI0
aI0
aI0
aI0
aI0
aI0
aI0
aI0
aI0
aa(lp6
I1
aI1
aF0.16133424034626279
aF0.16552921271687415
aI0
aI0
aI1
aI0
aI0
aI600
aI0
aI0
aI0
aI0
aI0
aI0
aI0
aI0
aI1
aI0
aI0
aI0
aI0
aI0
aI0
aI0
aI0
aI0
aI0
aI0
aI0
aI0
aI0
aI0
aI0
aI0
aI0
aI0
aI0
aI0
aI0
aI0
aI0
aI0
aI0
aI1
aa(lp7
I1
aI1
aF0.16133424034626279
aI1
aI1
aI1
aI1
aI0
aI0
aI600
aI0
aI0
aI0
aI0
aI0
aI0
aI0
aI0
aI0
aI0
aI0
aI0
aI0
aI0
aI0
aI0
aI0
aI0
aI0
aI0
aI0
aI0
aI0
aI0
aI0
aI0
aI0
aI0
aI0
aI0
aI0
aI0
aI0
aI0
aI0
aI0
aa(lp8
I1
aI1
aF0.16133424034626279
aF0.2509060962922141
aI0
aF0.17417843002138775
aI1
aI0
aI0
aI600
aI0
aI0
aI0
aI0
aI0
aI0
aI0
aI0
aI0
aI1
aI0
aI0
aI0
aI0
aI0
aI0
aI0
aI0
aI0
aI0
aI0
aI0
aI0
aI0
aI0
aI1
aI0
aI0
aI0
aI0
aI0
aI0
aI0
aI0
aI0
aI1
aa(lp9
I1
aI1
aF0.16133424034626279
aI1
aI1
aI1
aI1
aI0
aI0
aI600
aI0
aI0
aI0
aI0
aI0
aI0
aI0
aI0
aI0
aI0
aI0
aI0
aI0
aI0
aI0
aI0
aI0
aI0
aI0
aI0
aI0
aI0
aI0
aI0
aI0
aI0
aI1
aI0
aI0
aI0
aI0
aI0
aI0
aI0
aI0
aI0
aa(lp10
I1
aI1
aF0.16133424034626279
aI0
aI0
aI0
aI1
aI0
aI0
aI600
aI0
aI0
aI0
aI0
aI0
aI0
aI0
aI0
aI0
aI0
aI0
aI0
aI0
aI0
aI0
aI0
aI0
aI0
aI0
aI0
aI0
aI0
aI0
aI0
aI0
aI1
aI0
aI0
aI0
aI0
aI0
aI0
aI0
aI0
aI0
aI0
aa(lp11
I1
aI1
aF0.16133424034626279
aI1
aI1
aI1
aI1
aI0
aI0
aI600
aI0
aI0
aI0
aI0
aI0
aI0
aI0
aI0
aI0
aI0
aI0
aI0
aI0
aI0
aI0
aI0
aI0
aI0
aI0
aI0
aI0
aI0
aI0
aI0
aI0
aI1
aI0
aI0
aI0
aI0
aI0
aI0
aI0
aI0
aI0
aI0
aa(lp12
I1
aI1
aI1
aI1
aI1
aI1
aI1
aI0
aI0
aI600
aI0
aI0
aI0
aI0
aI0
aI0
aI0
aI0
aI0
aI0
aI0
aI0
aI0
aI0
aI0
aI0
aI0
aI0
aI0
aI0
aI0
aI0
aI0
aI0
aI0
aI0
aI1
aI0
aI0
aI0
aI0
aI0
aI0
aI0
aI0
aI0
aa(lp13
I1
aI1
aI1
aI1
aI1
aI1
aI1
aI0
aI0
aI600
aI0
aI0
aI0
aI0
aI0
aI0
aI0
aI0
aI0
aI0
aI0
aI0
aI0
aI0
aI0
aI0
aI0
aI0
aI0
aI0
aI0
aI0
aI0
aI0
aI0
aI1
aI0
aI0
aI0
aI0
aI0
aI0
aI0
aI0
aI0
aI0
aa(lp14
I1
aI1
aF0.14623139763227275
aI0
aI0
aI0
aI1
aI0
aI0
aI600
aI0
aI0
aI0
aI0
aI0
aI0
aI0
aI0
aI0
aI0
aI0
aI0
aI0
aI0
aI0
aI0
aI0
aI0
aI0
aI0
aI0
aI0
aI0
aI0
aI0
aI0
aI1
aI0
aI0
aI0
aI0
aI0
aI0
aI0
aI0
aI0
aa(lp15
I1
aI1
aI1
aF0.16552921271687415
aI0
aI0
aI1
aI0
aI0
aI600
aI0
aI0
aI0
aI0
aI0
aI0
aI0
aI0
aI0
aI1
aI0
aI0
aI0
aI0
aI0
aI0
aI0
aI0
aI0
aI0
aI0
aI0
aI0
aI0
aI0
aI0
aI0
aI0
aI0
aI0
aI0
aI0
aI0
aI0
aI0
aI1
aa(lp16
I1
aI1
aI1
aI1
aI1
aI1
aI1
aI0
aI0
aI600
aI0
aI0
aI0
aI0
aI0
aI0
aI0
aI0
aI0
aI0
aI0
aI0
aI0
aI0
aI0
aI0
aI0
aI0
aI0
aI0
aI0
aI0
aI0
aI0
aI0
aI1
aI0
aI0
aI0
aI0
aI0
aI0
aI0
aI0
aI0
aI0
aa(lp17
I1
aI1
aI1
aI1
aI0
aI1
aI1
aI0
aI0
aI600
aI0
aI0
aI0
aI0
aI0
aI0
aI0
aI0
aI0
aI0
aI0
aI0
aI0
aI0
aI0
aI0
aI0
aI0
aI0
aI0
aI0
aI0
aI0
aI0
aI0
aI1
aI0
aI0
aI0
aI0
aI0
aI0
aI0
aI0
aI0
aI0
aa(lp18
I1
aI1
aI1
aF0.2509060962922141
aI0
aF0.17417843002138775
aI1
aI0
aI0
aI600
aI0
aI0
aI0
aI0
aI0
aI0
aI0
aI0
aI1
aI0
aI0
aI0
aI0
aI0
aI0
aI0
aI0
aI0
aI0
aI0
aI0
aI0
aI0
aI0
aI0
aI1
aI0
aI0
aI0
aI0
aI0
aI0
aI0
aI0
aI0
aI1
aa(lp19
I1
aI1
aI1
aI1
aI1
aI1
aI1
aI0
aI0
aI600
aI0
aI0
aI0
aI0
aI0
aI0
aI0
aI0
aI0
aI0
aI0
aI0
aI0
aI0
aI0
aI0
aI0
aI0
aI0
aI0
aI0
aI0
aI0
aI0
aI0
aI0
aI0
aI0
aI0
aI0
aI0
aI0
aI0
aI0
aI0
aI0
aa(lp20
I1
aI1
aF0.17393829957055215
aI1
aI0
aI1
aI1
aI0
aI0
aI600
aI0
aI0
aI0
aI0
aI0
aI0
aI0
aI0
aI0
aI0
aI0
aI0
aI0
aI0
aI0
aI0
aI0
aI0
aI0
aI0
aI0
aI0
aI0
aI0
aI0
aI0
aI0
aI1
aI0
aI0
aI0
aI0
aI0
aI0
aI0
aI0
aa(lp21
I1
aI1
aF0.17393829957055215
aI0
aI0
aI0
aI1
aI0
aI0
aI600
aI0
aI0
aI0
aI0
aI0
aI0
aI0
aI0
aI0
aI0
aI0
aI0
aI0
aI0
aI0
aI0
aI0
aI0
aI0
aI0
aI0
aI0
aI0
aI0
aI0
aI0
aI0
aI0
aI0
aI0
aI0
aI0
aI0
aI0
aI0
aI0
aa(lp22
I1
aI1
aI1
aI1
aI1
aI1
aI1
aI0
aI0
aI600
aI0
aI0
aI0
aI0
aI0
aI0
aI0
aI0
aI0
aI0
aI0
aI0
aI0
aI0
aI0
aI0
aI0
aI0
aI0
aI0
aI0
aI0
aI0
aI0
aI0
aI0
aI0
aI0
aI0
aI0
aI0
aI0
aI0
aI0
aI0
aI0
aa(lp23
I1
aI1
aI1
aI1
aI1
aI1
aI1
aI0
aI0
aI600
aI0
aI0
aI0
aI0
aI0
aI0
aI0
aI0
aI0
aI0
aI0
aI0
aI0
aI0
aI0
aI0
aI0
aI0
aI0
aI0
aI0
aI0
aI0
aI0
aI0
aI0
aI0
aI0
aI0
aI0
aI0
aI0
aI0
aI0
aI0
aI0
aa(lp24
I1
aI1
aI1
aI1
aI1
aI1
aI1
aI0
aI0
aI600
aI0
aI0
aI0
aI0
aI0
aI0
aI0
aI0
aI0
aI0
aI0
aI0
aI0
aI0
aI0
aI0
aI0
aI0
aI0
aI0
aI0
aI0
aI1
aI0
aI0
aI0
aI0
aI0
aI0
aI0
aI0
aI0
aI0
aI0
aI0
aI0
aa(lp25
I1
aI1
aI1
aI1
aI1
aI1
aI1
aI0
aI0
aI600
aI0
aI0
aI0
aI0
aI0
aI0
aI0
aI0
aI0
aI0
aI0
aI0
aI0
aI0
aI0
aI0
aI0
aI0
aI0
aI0
aI0
aI0
aI0
aI0
aI0
aI0
aI0
aI0
aI0
aI0
aI0
aI0
aI0
aI0
aI0
aI0
aa(lp26
I1
aI1
aI1
aF0.19913640292796592
aI0
aI0
aI1
aI0
aI0
aI600
aI0
aI0
aI0
aI0
aI0
aI0
aI0
aI0
aI0
aI1
aI0
aI0
aI0
aI0
aI0
aI0
aI0
aI0
aI0
aI0
aI0
aI0
aI0
aI0
aI0
aI0
aI0
aI0
aI0
aI0
aI0
aI0
aI0
aI0
aI0
aI0
aa(lp27
I1
aI0
aI1
aI1
aI1
aI1
aI1
aI0
aI0
aI600
aI0
aI0
aI0
aI0
aI0
aI0
aI0
aI0
aI0
aI0
aI0
aI0
aI0
aI0
aI0
aI0
aI0
aI0
aI0
aI0
aI0
aI0
aI0
aI0
aI0
aI1
aI0
aI0
aI0
aI0
aI0
aI0
aI0
aI0
aI0
aI0
aa(lp28
I1
aI1
aI1
aF0.6264764452700349
aI0
aF0.17417843002138775
aI1
aI0
aI0
aI600
aI0
aI0
aI0
aI0
aI0
aI0
aI0
aI0
aI1
aI0
aI0
aI0
aI0
aI0
aI0
aI0
aI0
aI0
aI0
aI0
aI0
aI0
aI0
aI0
aI0
aI0
aI0
aI0
aI0
aI0
aI0
aI0
aI0
aI0
aI0
aI0
aa(lp29
I1
aI1
aI1
aI1
aI1
aI1
aI1
aI0
aI0
aI600
aI0
aI0
aI0
aI0
aI0
aI0
aI0
aI0
aI0
aI0
aI0
aI0
aI0
aI0
aI0
aI0
aI0
aI0
aI0
aI0
aI0
aI0
aI0
aI0
aI0
aI0
aI0
aI0
aI0
aI0
aI0
aI0
aI0
aI0
aI0
aI1
aa(lp30
I1
aI1
aI1
aF0.2509060962922141
aI0
aF0.17417843002138775
aI1
aI0
aI0
aI600
aI0
aI0
aI0
aI0
aI0
aI0
aI0
aI0
aI0
aI1
aI0
aI0
aI0
aI0
aI0
aI0
aI0
aI0
aI0
aI0
aI0
aI0
aI0
aI0
aI0
aI1
aI0
aI0
aI0
aI0
aI0
aI0
aI0
aI0
aI0
aI1
aa(lp31
I1
aI1
aI1
aI0
aI0
aI0
aI1
aI0
aI0
aI600
aI0
aI0
aI0
aI0
aI0
aI0
aI0
aI0
aI0
aI0
aI0
aI0
aI0
aI0
aI0
aI0
aI0
aI0
aI0
aI0
aI0
aI0
aI0
aI0
aI0
aI0
aI1
aI0
aI0
aI0
aI0
aI0
aI0
aI0
aI0
aI0
aa(lp32
I1
aI1
aI1
aI1
aI1
aI1
aI1
aI0
aI0
aI600
aI0
aI0
aI0
aI0
aI0
aI0
aI0
aI0
aI0
aI0
aI0
aI0
aI0
aI0
aI0
aI0
aI0
aI0
aI0
aI0
aI0
aI0
aI0
aI0
aI0
aI1
aI0
aI0
aI0
aI0
aI0
aI0
aI0
aI0
aI0
aI0
aa(lp33
I1
aI1
aI1
aI0
aI0
aI0
aI1
aI0
aI0
aI600
aI0
aI0
aI0
aI0
aI0
aI0
aI0
aI0
aI0
aI0
aI0
aI0
aI0
aI0
aI0
aI0
aI0
aI0
aI0
aI0
aI0
aI0
aI0
aI0
aI0
aI1
aI0
aI0
aI0
aI0
aI0
aI0
aI0
aI0
aI0
aI0
aa(lp34
I1
aF0.555013148927839
aF0.14623139763227275
aI1
aI0
aI1
aI1
aI0
aI0
aI600
aI0
aI0
aI0
aI0
aI0
aI0
aI0
aI0
aI0
aI0
aI0
aI0
aI0
aI0
aI0
aI0
aI0
aI0
aI0
aI0
aI0
aI0
aI1
aI0
aI0
aI0
aI0
aI0
aI0
aI0
aI0
aI0
aI0
aI0
aI0
aI0
aa(lp35
I1
aI1
aI1
aI1
aI1
aI1
aI1
aI0
aI0
aI600
aI0
aI0
aI0
aI0
aI0
aI0
aI0
aI0
aI0
aI0
aI0
aI0
aI0
aI0
aI0
aI0
aI0
aI0
aI0
aI0
aI0
aI0
aI0
aI0
aI0
aI0
aI1
aI0
aI0
aI0
aI0
aI0
aI0
aI0
aI0
aI0
aa(lp36
(lp37
I1
aI0
aF0.17393829957055215
aI1
aF0.6264764452700349
aI1
aI1
aI0
aI0
aI600
aI0
aI0
aI0
aI0
aI0
aI0
aI0
aI0
aI0
aI0
aI0
aI0
aI0
aI0
aI0
aI0
aI0
aI0
aI0
aI0
aI1
aI1
aI0
aI1
aI0
aI0
aI0
aI0
aI0
aI0
aI0
aI0
aI0
aI0
aI0
aI0
aa(lp38
I1
aI1
aF0.14623139763227275
aI1
aF0.15551595633801849
aI1
aI1
aI0
aI0
aI600
aI1
aI0
aI0
aI0
aI0
aI0
aI0
aI0
aI0
aI0
aI0
aI0
aI0
aI0
aI0
aI0
aI0
aI0
aI0
aI0
aI0
aI0
aI0
aI1
aI0
aI0
aI0
aI0
aI0
aI0
aI0
aI0
aI0
aI0
aI0
aI0
aa(lp39
I1
aI1
aF0.17393829957055215
aI1
aI0
aF0.17417843002138775
aI1
aI0
aI0
aI600
aI0
aI1
aI0
aI0
aI0
aI0
aI0
aI0
aI0
aI0
aI0
aI0
aI0
aI0
aI0
aI0
aI0
aI0
aI0
aI0
aI0
aI0
aI0
aI0
aI0
aI0
aI0
aI0
aI0
aI0
aI0
aI0
aI0
aI0
aI0
aI0
aa(lp40
I1
aI1
aI1
aI1
aI0
aI1
aI1
aI0
aI0
aI600
aI0
aI1
aI0
aI0
aI0
aI0
aI0
aI0
aI0
aI0
aI0
aI0
aI0
aI0
aI0
aI0
aI0
aI0
aI0
aI0
aI0
aI0
aI0
aI0
aI0
aI0
aI0
aI0
aI0
aI0
aI0
aI0
aI0
aI0
aI0
aI0
aa(lp41
I1
aI1
aI1
aI1
aI0
aI1
aI1
aI0
aI0
aI600
aI1
aI0
aI0
aI0
aI0
aI0
aI0
aI0
aI0
aI0
aI0
aI0
aI0
aI0
aI0
aI0
aI0
aI0
aI0
aI0
aI0
aI0
aI0
aI0
aI0
aI0
aI0
aI0
aI0
aI0
aI0
aI0
aI0
aI0
aI0
aI0
aa(lp42
I1
aI1
aI1
aI1
aI0
aI1
aI1
aI0
aI0
aI600
aI1
aI0
aI0
aI0
aI0
aI0
aI0
aI0
aI0
aI0
aI0
aI0
aI0
aI0
aI0
aI0
aI0
aI0
aI0
aI0
aI0
aI0
aI0
aI1
aI0
aI0
aI0
aI0
aI0
aI0
aI0
aI0
aI0
aI0
aI0
aI0
aa(lp43
I1
aI1
aI1
aI1
aI0
aI1
aI1
aI0
aI0
aI600
aI0
aI0
aI0
aI0
aI0
aI0
aI0
aI0
aI0
aI0
aI0
aI0
aI0
aI0
aI0
aI0
aI0
aI0
aI0
aI0
aI0
aI0
aI0
aI0
aI0
aI0
aI0
aI0
aI0
aI0
aI0
aI0
aI0
aI0
aI0
aI0
aa(lp44
I1
aI1
aI1
aF0.16557874207576306
aI0
aF0.17417843002138775
aI1
aI0
aI0
aI600
aI0
aI1
aI0
aI0
aI0
aI0
aI0
aI0
aI0
aI0
aI0
aI0
aI0
aI0
aI0
aI0
aI0
aI0
aI0
aI0
aI0
aI0
aI0
aI0
aI0
aI0
aI0
aI0
aI0
aI0
aI0
aI0
aI0
aI0
aI0
aI0
aa(lp45
I1
aI1
aF0.17393829957055215
aI1
aF0.555013148927839
aI1
aI1
aI0
aI0
aI600
aI0
aI0
aI0
aI0
aI0
aI0
aI0
aI0
aI0
aI1
aI0
aI0
aI0
aI0
aI0
aI0
aI0
aI0
aI0
aI0
aI0
aI1
aI0
aI0
aI0
aI0
aI0
aI0
aI0
aI0
aI0
aI0
aI0
aI0
aI0
aI0
aa(lp46
I1
aI1
aI1
aI1
aF0.6264764452700349
aI1
aI1
aI0
aI0
aI600
aI0
aI0
aI0
aI0
aI0
aI0
aI0
aI0
aI0
aI0
aI0
aI0
aI0
aI0
aI0
aI0
aI0
aI0
aI0
aI0
aI1
aI1
aI0
aI1
aI0
aI0
aI0
aI0
aI0
aI0
aI0
aI0
aI0
aI0
aI0
aI0
aa(lp47
I1
aI1
aF0.17393829957055215
aI0
aI0
aI0
aI1
aI0
aI0
aI600
aI0
aI0
aI0
aI0
aI0
aI0
aI0
aI0
aI0
aI0
aI0
aI0
aI0
aI0
aI0
aI0
aI0
aI0
aI0
aI0
aI0
aI0
aI0
aI0
aI0
aI0
aI0
aI0
aI0
aI0
aI0
aI0
aI0
aI0
aI0
aI0
aa(lp48
I1
aI1
aI1
aF0.2028833327579083
aF0.29998092927617304
aI0
aI1
aI0
aI0
aI600
aI0
aI0
aI0
aI0
aI0
aI0
aI0
aI0
aI0
aI0
aI0
aI0
aI0
aI0
aI0
aI0
aI0
aI0
aI0
aI0
aI0
aI0
aI0
aI1
aI0
aI0
aI0
aI0
aI0
aI0
aI0
aI0
aI0
aI0
aI0
aI0
aa(lp49
I1
aI1
aI1
aI1
aI1
aI1
aI1
aI0
aI0
aI600
aI0
aI0
aI0
aI0
aI0
aI0
aI0
aI0
aI0
aI0
aI0
aI0
aI0
aI0
aI0
aI0
aI0
aI0
aI0
aI0
aI0
aI0
aI0
aI0
aI0
aI0
aI0
aI0
aI0
aI0
aI0
aI0
aI0
aI0
aI0
aI0
aa(lp50
I1
aI0
aI1
aI1
aF0.29998092927617304
aI1
aI1
aI0
aI0
aI600
aI0
aI0
aI0
aI0
aI0
aI0
aI0
aI0
aI0
aI0
aI0
aI0
aI0
aI0
aI0
aI0
aI0
aI0
aI0
aI0
aI0
aI0
aI0
aI1
aI0
aI0
aI0
aI0
aI0
aI0
aI0
aI0
aI0
aI0
aI0
aI0
aa(lp51
I1
aF0.555013148927839
aI1
aF0.15779967308059284
aI0
aI0
aI1
aI0
aI0
aI600
aI0
aI0
aI0
aI0
aI0
aI0
aI0
aI0
aI0
aI0
aI0
aI0
aI0
aI0
aI0
aI0
aI0
aI0
aI0
aI0
aI0
aI0
aI0
aI0
aI0
aI0
aI0
aI0
aI0
aI0
aI0
aI0
aI0
aI0
aI0
aI0
aa(lp52
I1
aI1
aI1
aI1
aF0.555013148927839
aI1
aI1
aI0
aI0
aI600
aI0
aI0
aI0
aI0
aI0
aI0
aI0
aI0
aI0
aI0
aI0
aI0
aI0
aI0
aI0
aI0
aI0
aI0
aI0
aI0
aI0
aI0
aI0
aI1
aI0
aI0
aI0
aI0
aI0
aI0
aI0
aI0
aI0
aI0
aI0
aI0
aa(lp53
I1
aI0
aI1
aI1
aF0.39497064239625734
aI1
aI1
aI0
aI0
aI600
aI0
aI0
aI0
aI0
aI0
aI0
aI0
aI0
aI0
aI0
aI0
aI0
aI0
aI0
aI0
aI0
aI0
aI0
aI0
aI0
aI0
aI0
aI0
aI1
aI0
aI0
aI0
aI0
aI0
aI0
aI0
aI0
aI0
aI0
aI0
aI0
aa(lp54
I1
aI0
aI1
aI1
aF0.12996240609844528
aI1
aI1
aI0
aI0
aI600
aI0
aI0
aI0
aI0
aI0
aI0
aI0
aI0
aI0
aI0
aI0
aI0
aI0
aI0
aI0
aI0
aI0
aI0
aI0
aI0
aI0
aI0
aI0
aI1
aI0
aI0
aI0
aI0
aI0
aI0
aI0
aI0
aI0
aI0
aI0
aI0
aa(lp55
I1
aI1
aF0.17393829957055215
aI1
aF0.2709217414774352
aI1
aI1
aI0
aI0
aI600
aI0
aI0
aI0
aI0
aI1
aI1
aI0
aI0
aI0
aI0
aI0
aI0
aI0
aI0
aI0
aI0
aI0
aI0
aI0
aI0
aI0
aI0
aI0
aI0
aI0
aI0
aI0
aI0
aI0
aI0
aI0
aI0
aI0
aI0
aI1
aI0
aa(lp56
I1
aI1
aI1
aF0.19587082446504103
aI0
aF0.17417843002138775
aI1
aI0
aI0
aI600
aI1
aI0
aI0
aI0
aI0
aI0
aI0
aI0
aI0
aI0
aI0
aI0
aI0
aI0
aI0
aI0
aI0
aI0
aI0
aI0
aI0
aI0
aI0
aI1
aI0
aI0
aI0
aI0
aI0
aI0
aI0
aI0
aI0
aI0
aI0
aI0
aa(lp57
I1
aI0
aI1
aI1
aF0.234869748029384
aI1
aI1
aI0
aI0
aI600
aI0
aI0
aI0
aI0
aI0
aI0
aI0
aI0
aI0
aI0
aI0
aI0
aI0
aI0
aI0
aI0
aI0
aI0
aI0
aI0
aI0
aI0
aI0
aI0
aI0
aI0
aI0
aI0
aI0
aI0
aI0
aI0
aI0
aI0
aI0
aI0
aa(lp58
I1
aI1
aI1
aF0.26317136141364156
aF0.39497064239625734
aF0.17417843002138775
aI1
aI0
aI0
aI600
aI1
aI0
aI0
aI0
aI0
aI0
aI0
aI0
aI0
aI0
aI0
aI0
aI0
aI0
aI0
aI0
aI0
aI0
aI0
aI0
aI0
aI0
aI0
aI1
aI0
aI0
aI0
aI0
aI0
aI0
aI0
aI0
aI0
aI0
aI0
aI0
aa(lp59
I1
aI1
aF0.17393829957055215
aF0.28136387185230444
aI0
aI0
aI1
aI0
aI0
aI600
aI0
aI0
aI0
aI0
aI0
aI0
aI0
aI0
aI0
aI0
aI0
aI0
aI0
aI0
aI0
aI0
aI0
aI0
aI0
aI0
aI0
aI0
aI0
aI0
aI0
aI0
aI0
aI0
aI0
aI0
aI0
aI0
aI0
aI0
aI0
aI0
aa(lp60
I1
aI1
aI1
aI1
aI0
aI1
aI1
aI0
aI0
aI600
aI0
aI0
aI0
aI0
aI0
aI0
aI0
aI0
aI0
aI0
aI0
aI0
aI0
aI0
aI0
aI0
aI0
aI0
aI0
aI0
aI0
aI0
aI0
aI0
aI0
aI0
aI0
aI0
aI0
aI0
aI0
aI0
aI0
aI0
aI0
aI0
aa(lp61
I1
aF0.09400894020119234
aI1
aI1
aF0.11147856481020386
aI1
aI1
aI0
aI0
aI600
aI0
aI1
aI0
aI0
aI0
aI0
aI0
aI0
aI0
aI0
aI0
aI0
aI0
aI0
aI0
aI0
aI0
aI0
aI0
aI0
aI0
aI0
aI0
aI1
aI0
aI0
aI0
aI0
aI0
aI0
aI0
aI0
aI0
aI0
aI0
aI0
aa(lp62
I1
aI1
aI1
aI1
aI1
aI1
aI1
aI0
aI0
aI600
aI1
aI0
aI0
aI0
aI0
aI0
aI0
aI0
aI0
aI0
aI0
aI0
aI0
aI0
aI0
aI0
aI0
aI0
aI0
aI0
aI0
aI0
aI0
aI1
aI0
aI0
aI0
aI0
aI0
aI0
aI0
aI0
aI0
aI0
aI0
aI0
aa(lp63
I1
aI1
aI1
aF0.28136387185230444
aI0
aI0
aI1
aI0
aI0
aI600
aI0
aI0
aI0
aI0
aI0
aI0
aI0
aI0
aI0
aI0
aI0
aI0
aI0
aI0
aI0
aI0
aI0
aI0
aI0
aI0
aI0
aI0
aI0
aI0
aI0
aI0
aI0
aI0
aI0
aI0
aI0
aI0
aI0
aI0
aI0
aI0
aa(lp64
VJoan went to 4 football games this year. She went to 9 games last year. How many football games did Joan go to in all ?\u000a
p65
aVTom has 9 yellow balloons Sara has 8 yellow balloons. How many yellow balloons do they have in total ?\u000a
p66
aVThere are 4 walnut trees currently in the park. Park workers will plant 6 more walnut trees today. How many walnut trees will the park have when the workers are finished ?\u000a
p67
aVSam had 9 dimes in his bank. His dad gave him 7 more dimes. How many dimes does Sam have now ?\u000a
p68
aVA restaurant served 9 pizzas during lunch and 6 during dinner today. How many pizzas were served today ?\u000a
p69
aVThere are 2 pencils in the drawer. Tim placed 3 more pencils in the drawer. How many pencils are now there in total ?\u000a
p70
aVJoan found 6 seashells and Jessica found 8 seashells on the beach. How many seashells did they find together ?\u000a
p71
aVSandy grew 6 carrots. Sam grew 3 carrots. How many carrots did they grow in total ?\u000a
p72
aVBenny picked 2 apples and Dan picked 9 apples from the apple tree. How many apples were picked in total ?\u000a
p73
aVSam found 18 seashells and Mary found 47 seashells on the beach. How many seashells did they find together ?\u000a
p74
aVSara picked 45 pears and Sally picked 11 pears from the pear tree. How many pears were picked in total ?\u000a
p75
aVKeith has 20 books. Jason has 21 books.  How many books do they have together ?\u000a
p76
aVJason had 49 quarters in his bank. His dad gave him 25 more quarters. How many quarters does he have now ?\u000a
p77
aVJoan picked 37 oranges and Sara picked 10 oranges. How many oranges were picked in total ?\u000a
p78
aVFred went to 36 basketball games this year. He went to  11 games last year. How many basketball games did Fred go to in total ?\u000a
p79
aVThere are 33 pencils in the drawer. Joan placed  27 more pencils in the drawer. How many pencils are now there in total ?\u000a
p80
aVAnna starts with 5 candies. She gets 86 more from Larry. How many candies does Anna end with?\u000a
p81
aVIf there are 4 crayons in a box and Harold puts 15 more crayons inside, how many crayons are in the box?\u000a
p82
aVMartha has 2 peanuts. Joyce has 26 peanuts. If Joyce gives all of her peanuts to Martha, how many peanuts will Martha have?\u000a
p83
aVKevin starts with 7 cards. He finds another 47. How many cards does Kevin end with?\u000a
p84
aVNicholas starts with 8 bottle caps. He gets 85 more from Catherine. How many bottle caps does Nicholas end with?\u000a
p85
aVJanet has 57 apples. She finds another 95. How many apples does Janet have in all?\u000a
p86
aVNancy starts with 91 bottle caps. She finds another 88. How many bottle caps does Nancy end with?\u000a
p87
aVThere are 4 oranges. 73 oranges more are added. How many are there total?\u000a
p88
aVDan grew 42 turnips and 38 cantelopes. Jessica grew  47 turnips. How many turnips did they grow in total ?\u000a
p89
aVThere are 33 walnut trees currently in the park. Park workers will plant  44 more walnut trees today. How many walnut trees will the park have when the workers are finished ?\u000a
p90
aVSara had 21 quarters in her bank. Her dad gave her 49 more quarters. How many quarters does she have now ?\u000a
p91
aVThere are 41 pencils in the drawer. Mike placed 30 more  pencils in the drawer. How many pencils are now there in total ?\u000a
p92
aVJoan has 10 books. Tom has 38 books.  How many books do they have together ?\u000a
p93
aVJoan has 40 blue balloons Melanie has 41 blue balloons. How many blue balloons do they have in total ?\u000a
p94
aVFred grew 38 cantelopes. Tim grew 44 cantelopes. How many cantelopes did they grow in total ?\u000a
p95
aVSam went to 14 football games this year. He went to 29 games  last year. How many football games did Sam go to in all ?\u000a
p96
aVMary found 18 seashells and Jessica found 41 seashells on the beach. How many seashells did they find together ?\u000a
p97
aVYou have 24 cookies and want to share them equally with 6 people. How many cookies would each person get?\u000a
p98
aVYou are reading a book with 120 pages. If you want to read the same number of pages each night, how many would you have to read each night to finish in 10 days?\u000a
p99
aVA cereal box holds 18 cups of cereal. Each serving is 2 cups. How many servings are in the whole box?\u000a
p100
aVA box of books weighs 42 pounds. Each book weights 3 pounds. How many books are there in the box?\u000a
p101
aVSue\ufffd\ufffd\ufffds mother made 75 cookies. She put the cookies in bags, with 3 cookies in each bag. How many bags could she fill up?\u000a
p102
aVAn airplane hangar is 300 feet long. How many planes can fit into it, end to end, if each plane is 40 feet long?\u000a
p103
aVIt takes 3 eggs to make a cake. How many cakes can you make with 37 eggs?\u000a
p104
aV105 people are going to a movie. 6 people can ride in each car. How many cars are needed to get all 105 people to the movie?\u000a
p105
aVMs. Baker has 17 cupcakes. She wants to share them equally among her 3 children so that no one gets more than anyone else. If she gives each child as many cupcakes as possible, how many cupcakes will be left over for Ms. Baker to eat?\u000a
p106
aV89 cookies are being shared equally among 4 people. How many does each person get? \u000a
p107
aVDeborah is running a marathon. She can run 4 miles in an hour. How long will it take her to run 26 miles?\u000a
p108
aV256 students are going to the zoo. They have to be divided into groups so that each teacher has one group. There are 8 teachers. How many students will be in each group?\u000a
p109
aVA fruit farm packs oranges in boxes that hold 10 each. One day it packs 2650 oranges. How many boxes did they use?\u000a
p110
aVYou want to give your baseball cards to your 5 best friends. You have 455 baseball cards. How many would each get, if you share them equally?\u000a
p111
aVMike has 45 dollars in 5 dollar bills.  How many 5 dollars bills does  he have ?\u000a
p112
aVA restaurant sold 63 hamburgers last 7 days. How many hamburgers on average were sold each day ?\u000a
p113
aVDan was at the beach for 5 days and found 36 seashells. He plans to give all of his seashells equally to his 4 friends. How many seashells will each friend get ?\u000a
p114
aVSandy worked 45 hours in the last 5 days. Assuming that she worked the same amount of hours each day, how long did she work each day ?\u000a
p115
aVThere were a total of 27 soccer games during the 3 month season.  If the games are equally divided, how many soccer games are played a month ?\u000a
p116
aVThere are 390 students at a school. If each classroom holds 30 students, how many classrooms are needed at the school?\u000a
p117
aVNancy bought 615 crayons that came in packs of 15.  How many packs of crayons did Nancy buy?\u000a
p118
aVA teacher has 344 pieces of candy. If there are 43 students, and the candy is divided evenly, How many pieces will each student get?\u000a
p119
aVShe counted her crayons and found out that she has 80 crayons which she will place in crayon boxes. Every crayon box can contain 8 crayons. How many crayon boxes does she need?\u000a
p120
aVBeside the pile of clean white paper was a stack of 700 sheets of used paper. She wants to place it in boxes for recycling. If every box can contain 100 sheets, how many boxes does she need?\u000a
p121
aVLexie\ufffd\ufffd\ufffds younger brother helped pick up all the paper clips in Lexie\ufffd\ufffd\ufffds room. He was able to collect 81 paper clips. If he wants to distribute the paper clips in 9 boxes, how many paper clips will each box contain?\u000a
p122
aVWhen relatives visit Haley and her family, she and her cousins do origami. If she has 48 origami papers to give away to her 6 cousins, how many will each receive if she gives everyone the same number of origami papers?\u000a
p123
aVHaley has 63 magazines in her cabinet. She plans to send it to the recycling office in their area. If she places it in boxes which can contain 9 magazines, how many boxes will she use?\u000a
p124
atp125
sS'*'
p126
((lp127
g37
ag38
ag39
ag40
ag41
ag42
ag43
ag44
ag45
ag46
ag47
ag48
ag49
ag50
ag51
ag52
ag53
ag54
ag55
ag56
ag57
ag58
ag59
ag60
ag61
ag62
ag63
a(lp128
g3
ag4
ag5
ag6
ag7
ag8
ag9
ag10
ag11
ag12
ag13
ag14
ag15
ag16
ag17
ag18
ag19
ag20
ag21
ag22
ag23
ag24
ag25
ag26
ag27
ag28
ag29
ag30
ag31
ag32
ag33
ag34
ag35
a(lp129
VJoan went to 4 football games this year. She went to 9 games last year. How many football games did Joan go to in all ?\u000a
p130
aVTom has 9 yellow balloons Sara has 8 yellow balloons. How many yellow balloons do they have in total ?\u000a
p131
aVThere are 4 walnut trees currently in the park. Park workers will plant 6 more walnut trees today. How many walnut trees will the park have when the workers are finished ?\u000a
p132
aVSam had 9 dimes in his bank. His dad gave him 7 more dimes. How many dimes does Sam have now ?\u000a
p133
aVA restaurant served 9 pizzas during lunch and 6 during dinner today. How many pizzas were served today ?\u000a
p134
aVThere are 2 pencils in the drawer. Tim placed 3 more pencils in the drawer. How many pencils are now there in total ?\u000a
p135
aVJoan found 6 seashells and Jessica found 8 seashells on the beach. How many seashells did they find together ?\u000a
p136
aVSandy grew 6 carrots. Sam grew 3 carrots. How many carrots did they grow in total ?\u000a
p137
aVBenny picked 2 apples and Dan picked 9 apples from the apple tree. How many apples were picked in total ?\u000a
p138
aVSam found 18 seashells and Mary found 47 seashells on the beach. How many seashells did they find together ?\u000a
p139
aVSara picked 45 pears and Sally picked 11 pears from the pear tree. How many pears were picked in total ?\u000a
p140
aVKeith has 20 books. Jason has 21 books.  How many books do they have together ?\u000a
p141
aVJason had 49 quarters in his bank. His dad gave him 25 more quarters. How many quarters does he have now ?\u000a
p142
aVJoan picked 37 oranges and Sara picked 10 oranges. How many oranges were picked in total ?\u000a
p143
aVFred went to 36 basketball games this year. He went to  11 games last year. How many basketball games did Fred go to in total ?\u000a
p144
aVThere are 33 pencils in the drawer. Joan placed  27 more pencils in the drawer. How many pencils are now there in total ?\u000a
p145
aVAnna starts with 5 candies. She gets 86 more from Larry. How many candies does Anna end with?\u000a
p146
aVIf there are 4 crayons in a box and Harold puts 15 more crayons inside, how many crayons are in the box?\u000a
p147
aVMartha has 2 peanuts. Joyce has 26 peanuts. If Joyce gives all of her peanuts to Martha, how many peanuts will Martha have?\u000a
p148
aVKevin starts with 7 cards. He finds another 47. How many cards does Kevin end with?\u000a
p149
aVNicholas starts with 8 bottle caps. He gets 85 more from Catherine. How many bottle caps does Nicholas end with?\u000a
p150
aVJanet has 57 apples. She finds another 95. How many apples does Janet have in all?\u000a
p151
aVNancy starts with 91 bottle caps. She finds another 88. How many bottle caps does Nancy end with?\u000a
p152
aVThere are 4 oranges. 73 oranges more are added. How many are there total?\u000a
p153
aVDan grew 42 turnips and 38 cantelopes. Jessica grew  47 turnips. How many turnips did they grow in total ?\u000a
p154
aVThere are 33 walnut trees currently in the park. Park workers will plant  44 more walnut trees today. How many walnut trees will the park have when the workers are finished ?\u000a
p155
aVSara had 21 quarters in her bank. Her dad gave her 49 more quarters. How many quarters does she have now ?\u000a
p156
aVThere are 41 pencils in the drawer. Mike placed 30 more  pencils in the drawer. How many pencils are now there in total ?\u000a
p157
aVJoan has 10 books. Tom has 38 books.  How many books do they have together ?\u000a
p158
aVJoan has 40 blue balloons Melanie has 41 blue balloons. How many blue balloons do they have in total ?\u000a
p159
aVFred grew 38 cantelopes. Tim grew 44 cantelopes. How many cantelopes did they grow in total ?\u000a
p160
aVSam went to 14 football games this year. He went to 29 games  last year. How many football games did Sam go to in all ?\u000a
p161
aVMary found 18 seashells and Jessica found 41 seashells on the beach. How many seashells did they find together ?\u000a
p162
aVYou have 24 cookies and want to share them equally with 6 people. How many cookies would each person get?\u000a
p163
aVYou are reading a book with 120 pages. If you want to read the same number of pages each night, how many would you have to read each night to finish in 10 days?\u000a
p164
aVA cereal box holds 18 cups of cereal. Each serving is 2 cups. How many servings are in the whole box?\u000a
p165
aVA box of books weighs 42 pounds. Each book weights 3 pounds. How many books are there in the box?\u000a
p166
aVSue\ufffd\ufffd\ufffds mother made 75 cookies. She put the cookies in bags, with 3 cookies in each bag. How many bags could she fill up?\u000a
p167
aVAn airplane hangar is 300 feet long. How many planes can fit into it, end to end, if each plane is 40 feet long?\u000a
p168
aVIt takes 3 eggs to make a cake. How many cakes can you make with 37 eggs?\u000a
p169
aV105 people are going to a movie. 6 people can ride in each car. How many cars are needed to get all 105 people to the movie?\u000a
p170
aVMs. Baker has 17 cupcakes. She wants to share them equally among her 3 children so that no one gets more than anyone else. If she gives each child as many cupcakes as possible, how many cupcakes will be left over for Ms. Baker to eat?\u000a
p171
aV89 cookies are being shared equally among 4 people. How many does each person get? \u000a
p172
aVDeborah is running a marathon. She can run 4 miles in an hour. How long will it take her to run 26 miles?\u000a
p173
aV256 students are going to the zoo. They have to be divided into groups so that each teacher has one group. There are 8 teachers. How many students will be in each group?\u000a
p174
aVA fruit farm packs oranges in boxes that hold 10 each. One day it packs 2650 oranges. How many boxes did they use?\u000a
p175
aVYou want to give your baseball cards to your 5 best friends. You have 455 baseball cards. How many would each get, if you share them equally?\u000a
p176
aVMike has 45 dollars in 5 dollar bills.  How many 5 dollars bills does  he have ?\u000a
p177
aVA restaurant sold 63 hamburgers last 7 days. How many hamburgers on average were sold each day ?\u000a
p178
aVDan was at the beach for 5 days and found 36 seashells. He plans to give all of his seashells equally to his 4 friends. How many seashells will each friend get ?\u000a
p179
aVSandy worked 45 hours in the last 5 days. Assuming that she worked the same amount of hours each day, how long did she work each day ?\u000a
p180
aVThere were a total of 27 soccer games during the 3 month season.  If the games are equally divided, how many soccer games are played a month ?\u000a
p181
aVThere are 390 students at a school. If each classroom holds 30 students, how many classrooms are needed at the school?\u000a
p182
aVNancy bought 615 crayons that came in packs of 15.  How many packs of crayons did Nancy buy?\u000a
p183
aVA teacher has 344 pieces of candy. If there are 43 students, and the candy is divided evenly, How many pieces will each student get?\u000a
p184
aVShe counted her crayons and found out that she has 80 crayons which she will place in crayon boxes. Every crayon box can contain 8 crayons. How many crayon boxes does she need?\u000a
p185
aVBeside the pile of clean white paper was a stack of 700 sheets of used paper. She wants to place it in boxes for recycling. If every box can contain 100 sheets, how many boxes does she need?\u000a
p186
aVLexie\ufffd\ufffd\ufffds younger brother helped pick up all the paper clips in Lexie\ufffd\ufffd\ufffds room. He was able to collect 81 paper clips. If he wants to distribute the paper clips in 9 boxes, how many paper clips will each box contain?\u000a
p187
aVWhen relatives visit Haley and her family, she and her cousins do origami. If she has 48 origami papers to give away to her 6 cousins, how many will each receive if she gives everyone the same number of origami papers?\u000a
p188
aVHaley has 63 magazines in her cabinet. She plans to send it to the recycling office in their area. If she places it in boxes which can contain 9 magazines, how many boxes will she use?\u000a
p189
atp190
s.