(dp0
S'+'
p1
((lp2
(lp3
I1
aI1
aI1
aI1
aI0
aI1
aI1
aI0
aI0
aI600
aI0
aI0
aI0
aI0
aI0
aI0
aI0
aI0
aI0
aI0
aI0
aI0
aI0
aI0
aI0
aI0
aI0
aI0
aI0
aI0
aI0
aI0
aI0
aI0
aI0
aI0
aI0
aI0
aI0
aI0
aI0
aI0
aI1
aI0
aI0
aI0
aa(lp4
I1
aI1
aI1
aI1
aI1
aI1
aI1
aI0
aI0
aI600
aI0
aI0
aI0
aI0
aI0
aI0
aI0
aI0
aI0
aI0
aI0
aI0
aI0
aI0
aI0
aI0
aI0
aI0
aI0
aI0
aI0
aI0
aI0
aI0
aI0
aI0
aI0
aI0
aI0
aI0
aI0
aI0
aI0
aI0
aI0
aI0
aa(lp5
I1
aF0.1675187991745242
aI1
aI0
aI0
aI0
aI1
aI0
aI0
aI600
aI0
aI0
aI0
aI0
aI0
aI0
aI0
aI0
aI0
aI0
aI0
aI0
aI0
aI0
aI0
aI0
aI0
aI0
aI0
aI0
aI0
aI0
aI0
aI0
aI0
aI0
aI0
aI0
aI0
aI0
aI0
aI0
aI0
aI0
aI0
aI0
aa(lp6
I1
aI1
aI1
aI1
aI1
aI1
aI1
aI0
aI0
aI600
aI0
aI0
aI0
aI0
aI0
aI0
aI0
aI0
aI0
aI0
aI0
aI0
aI0
aI0
aI0
aI0
aI0
aI0
aI0
aI0
aI0
aI0
aI0
aI0
aI0
aI0
aI0
aI0
aI0
aI0
aI0
aI0
aI0
aI0
aI0
aI0
aa(lp7
I1
aI1
aI1
aI1
aI1
aI1
aI1
aI0
aI0
aI600
aI0
aI0
aI0
aI0
aI0
aI0
aI0
aI0
aI0
aI0
aI0
aI0
aI0
aI0
aI0
aI0
aI0
aI0
aI0
aI0
aI0
aI0
aI0
aI0
aI0
aI0
aI0
aI0
aI0
aI0
aI0
aI0
aI0
aI0
aI0
aI0
aa(lp8
I1
aI1
aF0.17393829957055215
aF0.19436771392667943
aI0
aF0.17417843002138775
aI1
aI0
aI0
aI600
aI0
aI0
aI0
aI0
aI0
aI0
aI0
aI0
aI0
aI0
aI0
aI0
aI0
aI0
aI0
aI0
aI0
aI0
aI0
aI0
aI0
aI0
aI0
aI0
aI0
aI0
aI0
aI0
aI0
aI0
aI0
aI0
aI0
aI0
aI0
aI0
aa(lp9
I1
aI1
aI1
aI1
aI1
aI1
aI1
aI0
aI0
aI600
aI0
aI0
aI0
aI0
aI0
aI0
aI0
aI0
aI0
aI0
aI0
aI0
aI0
aI0
aI0
aI0
aI0
aI0
aI0
aI0
aI0
aI0
aI0
aI0
aI0
aI0
aI0
aI0
aI0
aI0
aI0
aI0
aI0
aI0
aI0
aI0
aa(lp10
I1
aI1
aI1
aI1
aI0
aI1
aI1
aI0
aI0
aI600
aI0
aI0
aI0
aI0
aI0
aI0
aI0
aI0
aI0
aI0
aI0
aI0
aI0
aI0
aI0
aI0
aI0
aI0
aI0
aI0
aI0
aI0
aI0
aI0
aI0
aI0
aI0
aI0
aI0
aI0
aI0
aI0
aI0
aI0
aI0
aI0
aa(lp11
I1
aI1
aI1
aI0
aI0
aI0
aI1
aI0
aI0
aI600
aI0
aI0
aI0
aI0
aI0
aI0
aI0
aI0
aI0
aI0
aI0
aI0
aI0
aI0
aI0
aI0
aI0
aI0
aI0
aI0
aI0
aI0
aI0
aI0
aI0
aI0
aI0
aI1
aI0
aI0
aI0
aI0
aI0
aI0
aI0
aI0
aa(lp12
I1
aI1
aF0.16133424034626279
aI1
aI0
aI1
aI1
aI0
aI0
aI600
aI0
aI0
aI0
aI0
aI0
aI0
aI0
aI0
aI0
aI0
aI0
aI0
aI0
aI0
aI0
aI0
aI0
aI0
aI0
aI0
aI0
aI0
aI0
aI0
aI0
aI0
aI0
aI1
aI0
aI1
aI0
aI0
aI0
aI0
aI0
aI0
aa(lp13
I1
aI1
aF0.16133424034626279
aI1
aI1
aI1
aI1
aI0
aI0
aI600
aI0
aI0
aI0
aI0
aI0
aI0
aI0
aI0
aI0
aI0
aI0
aI0
aI0
aI0
aI0
aI0
aI0
aI0
aI0
aI0
aI0
aI0
aI0
aI0
aI0
aI0
aI0
aI0
aI0
aI0
aI0
aI0
aI0
aI0
aI0
aI0
aa(lp14
I1
aI1
aF0.16133424034626279
aI1
aI1
aI1
aI1
aI0
aI0
aI600
aI0
aI0
aI0
aI0
aI0
aI0
aI0
aI0
aI0
aI0
aI0
aI0
aI0
aI0
aI0
aI0
aI0
aI0
aI0
aI0
aI0
aI0
aI0
aI0
aI0
aI0
aI0
aI0
aI0
aI0
aI0
aI0
aI0
aI0
aI0
aI1
aa(lp15
I1
aI1
aF0.16133424034626279
aI1
aI0
aI1
aI1
aI0
aI0
aI600
aI0
aI0
aI0
aI0
aI0
aI0
aI0
aI0
aI0
aI0
aI0
aI0
aI0
aI0
aI0
aI0
aI0
aI0
aI0
aI0
aI0
aI0
aI0
aI0
aI0
aI0
aI0
aI0
aI0
aI0
aI0
aI0
aI0
aI0
aI0
aI1
aa(lp16
I1
aI1
aF0.16133424034626279
aI1
aI1
aI1
aI1
aI0
aI0
aI600
aI0
aI0
aI0
aI0
aI0
aI0
aI0
aI0
aI0
aI0
aI0
aI0
aI0
aI0
aI0
aI0
aI0
aI0
aI0
aI0
aI0
aI0
aI0
aI0
aI0
aI0
aI0
aI0
aI0
aI0
aI0
aI0
aI0
aI0
aI0
aI1
aa(lp17
I1
aF0.555013148927839
aI1
aI1
aI0
aI0
aI1
aI0
aI0
aI600
aI0
aI0
aI0
aI0
aI0
aI0
aI0
aI0
aI0
aI0
aI0
aI0
aI0
aI0
aI0
aI0
aI0
aI0
aI0
aI0
aI0
aI0
aI0
aI0
aI0
aI0
aI0
aI0
aI0
aI0
aI0
aI0
aI0
aI0
aI0
aI0
aa(lp18
I1
aI1
aI1
aI1
aI0
aI1
aI1
aI0
aI0
aI600
aI0
aI0
aI0
aI0
aI0
aI0
aI0
aI0
aI0
aI0
aI0
aI0
aI0
aI0
aI0
aI0
aI0
aI0
aI0
aI0
aI0
aI0
aI0
aI0
aI0
aI0
aI0
aI0
aI0
aI0
aI0
aI0
aI0
aI0
aI0
aI1
aa(lp19
I1
aI0
aI1
aI1
aI0
aI1
aI1
aI0
aI0
aI600
aI0
aI0
aI0
aI0
aI0
aI0
aI0
aI0
aI0
aI0
aI0
aI0
aI0
aI0
aI0
aI0
aI0
aI0
aI0
aI0
aI0
aI0
aI0
aI0
aI0
aI0
aI0
aI0
aI0
aI0
aI0
aI0
aI0
aI0
aI0
aI1
aa(lp20
I1
aI1
aI1
aI1
aI0
aI1
aI1
aI0
aI0
aI600
aI0
aI0
aI0
aI0
aI0
aI0
aI0
aI0
aI0
aI0
aI0
aI0
aI0
aI0
aI0
aI0
aI0
aI0
aI0
aI0
aI0
aI0
aI0
aI0
aI0
aI0
aI0
aI0
aI0
aI0
aI0
aI0
aI0
aI0
aI0
aI1
aa(lp21
I1
aF0.555013148927839
aI1
aI1
aI0
aI1
aI1
aI0
aI0
aI600
aI0
aI0
aI0
aI0
aI0
aI0
aI0
aI0
aI0
aI0
aI0
aI0
aI0
aI0
aI0
aI0
aI0
aI0
aI0
aI0
aI0
aI0
aI0
aI0
aI0
aI0
aI0
aI0
aI0
aI0
aI0
aI0
aI0
aI0
aI0
aI1
aa(lp22
I1
aI1
aI1
aI1
aI0
aI1
aI1
aI0
aI0
aI600
aI0
aI0
aI0
aI0
aI0
aI0
aI0
aI0
aI0
aI0
aI0
aI0
aI0
aI0
aI0
aI0
aI0
aI0
aI0
aI0
aI0
aI0
aI0
aI0
aI0
aI0
aI0
aI0
aI0
aI0
aI0
aI0
aI0
aI0
aI0
aI1
aa(lp23
I1
aI1
aI1
aI1
aI0
aI0
aI1
aI0
aI0
aI600
aI0
aI0
aI0
aI0
aI0
aI0
aI0
aI0
aI0
aI0
aI0
aI0
aI0
aI0
aI0
aI0
aI0
aI0
aI0
aI0
aI0
aI0
aI0
aI0
aI0
aI0
aI0
aI0
aI0
aI0
aI0
aI0
aI0
aI0
aI0
aI0
aa(lp24
I1
aI1
aI1
aI1
aI0
aI1
aI1
aI0
aI0
aI600
aI0
aI0
aI0
aI0
aI0
aI0
aI0
aI0
aI0
aI0
aI0
aI0
aI0
aI0
aI0
aI0
aI0
aI0
aI0
aI0
aI0
aI0
aI0
aI0
aI0
aI0
aI0
aI0
aI0
aI0
aI0
aI0
aI0
aI0
aI0
aI1
aa(lp25
I1
aI1
aI1
aI1
aI0
aI0
aI1
aI0
aI0
aI600
aI0
aI0
aI0
aI0
aI0
aI0
aI0
aI0
aI0
aI0
aI0
aI0
aI0
aI0
aI0
aI0
aI0
aI0
aI0
aI0
aI0
aI0
aI0
aI0
aI0
aI0
aI0
aI0
aI0
aI0
aI0
aI0
aI0
aI0
aI0
aI0
aa(lp26
I1
aI0
aI1
aI1
aI0
aI1
aI1
aI0
aI0
aI600
aI0
aI0
aI0
aI0
aI0
aI0
aI0
aI0
aI0
aI0
aI0
aI0
aI0
aI0
aI0
aI0
aI0
aI0
aI0
aI0
aI0
aI0
aI0
aI0
aI0
aI0
aI0
aI0
aI0
aI0
aI0
aI0
aI0
aI0
aI0
aI1
aa(lp27
I1
aI1
aI1
aI1
aI0
aI1
aI1
aI0
aI0
aI600
aI0
aI0
aI0
aI0
aI0
aI0
aI0
aI0
aI0
aI0
aI0
aI0
aI0
aI0
aI0
aI0
aI0
aI0
aI0
aI0
aI0
aI0
aI0
aI0
aI0
aI0
aI0
aI0
aI0
aI0
aI0
aI0
aI0
aI0
aI0
aI1
aa(lp28
I1
aI0
aF0.16133424034626279
aI1
aI0
aI1
aI1
aI0
aI0
aI600
aI0
aI0
aI0
aI0
aI0
aI0
aI0
aI0
aI0
aI0
aI0
aI0
aI0
aI0
aI0
aI0
aI0
aI0
aI0
aI0
aI0
aI0
aI0
aI0
aI0
aI0
aI0
aI0
aI0
aI0
aI0
aI0
aI0
aI0
aI0
aI1
aa(lp29
I1
aI1
aF0.16133424034626279
aI1
aI0
aI1
aI1
aI0
aI0
aI600
aI0
aI0
aI0
aI0
aI0
aI0
aI0
aI0
aI0
aI0
aI0
aI0
aI0
aI0
aI0
aI0
aI0
aI0
aI0
aI0
aI0
aI0
aI0
aI0
aI0
aI0
aI0
aI0
aI0
aI0
aI0
aI0
aI0
aI0
aI0
aI1
aa(lp30
I1
aI1
aF0.16133424034626279
aI1
aI0
aI1
aI1
aI0
aI0
aI600
aI0
aI0
aI0
aI0
aI0
aI0
aI0
aI0
aI0
aI0
aI0
aI0
aI0
aI0
aI0
aI0
aI0
aI0
aI0
aI0
aI0
aI0
aI0
aI0
aI0
aI0
aI0
aI0
aI0
aI0
aI0
aI0
aI0
aI0
aI0
aI1
aa(lp31
I1
aI1
aF0.16133424034626279
aI1
aI1
aI1
aI1
aI0
aI0
aI600
aI0
aI0
aI0
aI0
aI0
aI0
aI0
aI0
aI0
aI0
aI0
aI0
aI0
aI0
aI0
aI0
aI0
aI0
aI0
aI0
aI0
aI0
aI0
aI0
aI0
aI0
aI0
aI0
aI0
aI0
aI0
aI0
aI1
aI0
aI0
aI0
aa(lp32
I1
aI1
aF0.16133424034626279
aI1
aI1
aI1
aI1
aI0
aI0
aI600
aI0
aI0
aI0
aI0
aI0
aI0
aI0
aI0
aI0
aI0
aI0
aI0
aI0
aI0
aI0
aI0
aI0
aI0
aI0
aI0
aI0
aI0
aI0
aI0
aI0
aI0
aI0
aI0
aI0
aI0
aI0
aI0
aI0
aI0
aI0
aI1
aa(lp33
I1
aI0
aF0.16133424034626279
aI1
aI0
aI1
aI1
aI0
aI0
aI600
aI0
aI0
aI0
aI0
aI0
aI0
aI0
aI0
aI0
aI0
aI0
aI0
aI0
aI0
aI0
aI0
aI0
aI0
aI0
aI0
aI0
aI0
aI0
aI0
aI0
aI0
aI0
aI0
aI0
aI0
aI0
aI0
aI0
aI0
aI0
aI1
aa(lp34
I1
aI1
aF0.16133424034626279
aF0.2743844911127874
aI0
aF0.17417843002138775
aI1
aI0
aI0
aI600
aI0
aI0
aI0
aI0
aI0
aI0
aI0
aI0
aI0
aI0
aI0
aI0
aI0
aI0
aI0
aI0
aI0
aI0
aI0
aI0
aI0
aI0
aI0
aI0
aI0
aI0
aI0
aI0
aI0
aI0
aI0
aI0
aI0
aI0
aI0
aI0
aa(lp35
I1
aI1
aF0.16133424034626279
aI1
aI0
aI1
aI1
aI0
aI0
aI600
aI0
aI0
aI0
aI0
aI0
aI0
aI0
aI0
aI0
aI0
aI0
aI0
aI0
aI0
aI0
aI0
aI0
aI0
aI0
aI0
aI0
aI0
aI0
aI0
aI0
aI0
aI0
aI0
aI0
aI0
aI0
aI0
aI0
aI0
aI0
aI1
aa(lp36
I1
aI1
aF0.16133424034626279
aI1
aI1
aI1
aI1
aI0
aI0
aI600
aI0
aI0
aI0
aI0
aI0
aI0
aI0
aI0
aI0
aI0
aI0
aI0
aI0
aI0
aI0
aI0
aI0
aI0
aI0
aI0
aI0
aI0
aI0
aI0
aI0
aI0
aI0
aI0
aI0
aI0
aI0
aI0
aI1
aI0
aI0
aI0
aa(lp37
I1
aI1
aF0.16133424034626279
aI1
aI0
aI1
aI1
aI0
aI0
aI600
aI0
aI0
aI0
aI0
aI0
aI0
aI0
aI0
aI0
aI0
aI0
aI0
aI0
aI0
aI0
aI0
aI0
aI0
aI0
aI0
aI0
aI0
aI0
aI0
aI0
aI0
aI0
aI0
aI0
aI0
aI0
aI0
aI0
aI0
aI0
aI1
aa(lp38
I1
aI1
aF0.16133424034626279
aI1
aI0
aI1
aI1
aI0
aI0
aI600
aI0
aI0
aI0
aI0
aI0
aI0
aI0
aI0
aI0
aI0
aI0
aI0
aI0
aI0
aI0
aI0
aI0
aI0
aI0
aI0
aI0
aI0
aI0
aI0
aI0
aI0
aI0
aI0
aI0
aI0
aI0
aI0
aI0
aI0
aI0
aI1
aa(lp39
I1
aI1
aF0.16133424034626279
aI1
aI1
aI1
aI1
aI0
aI0
aI600
aI0
aI0
aI0
aI0
aI0
aI0
aI0
aI0
aI0
aI0
aI0
aI0
aI0
aI0
aI0
aI0
aI0
aI0
aI0
aI0
aI0
aI0
aI0
aI0
aI0
aI0
aI0
aI0
aI0
aI0
aI0
aI0
aI0
aI0
aI0
aI0
aa(lp40
I1
aI1
aF0.16133424034626279
aI1
aI1
aI1
aI1
aI0
aI0
aI600
aI0
aI0
aI0
aI0
aI0
aI0
aI0
aI0
aI0
aI0
aI0
aI0
aI0
aI0
aI0
aI0
aI0
aI0
aI0
aI0
aI0
aI0
aI0
aI0
aI0
aI0
aI0
aI0
aI0
aI0
aI0
aI0
aI0
aI0
aI0
aI1
aa(lp41
I1
aI1
aI1
aI1
aI1
aI1
aI1
aI0
aI0
aI600
aI0
aI0
aI0
aI0
aI0
aI0
aI0
aI0
aI0
aI0
aI0
aI0
aI0
aI0
aI0
aI0
aI0
aI0
aI0
aI0
aI0
aI0
aI0
aI0
aI0
aI0
aI0
aI0
aI0
aI0
aI0
aI0
aI0
aI0
aI0
aI1
aa(lp42
I1
aI1
aI1
aI1
aI0
aI0
aI1
aI0
aI0
aI600
aI0
aI0
aI0
aI0
aI0
aI0
aI0
aI0
aI0
aI0
aI0
aI0
aI0
aI0
aI0
aI0
aI0
aI0
aI0
aI0
aI0
aI0
aI0
aI0
aI0
aI0
aI0
aI0
aI0
aI0
aI0
aI0
aI0
aI0
aI0
aI0
aa(lp43
I1
aI1
aF0.14623139763227275
aI1
aI0
aI1
aI1
aI0
aI0
aI600
aI0
aI0
aI0
aI0
aI0
aI0
aI0
aI0
aI0
aI0
aI0
aI0
aI0
aI0
aI0
aI0
aI0
aI0
aI0
aI0
aI0
aI0
aI0
aI0
aI0
aI0
aI0
aI0
aI0
aI0
aI0
aI0
aI0
aI0
aI0
aI1
aa(lp44
I1
aI0
aF0.14623139763227275
aI1
aI0
aI1
aI1
aI0
aI0
aI600
aI0
aI0
aI0
aI0
aI0
aI0
aI0
aI0
aI0
aI0
aI0
aI0
aI0
aI0
aI0
aI0
aI0
aI0
aI0
aI0
aI0
aI0
aI0
aI0
aI0
aI0
aI0
aI0
aI0
aI0
aI0
aI0
aI0
aI0
aI0
aI1
aa(lp45
I1
aI1
aI1
aI1
aI0
aI1
aI1
aI0
aI0
aI600
aI0
aI0
aI0
aI0
aI0
aI0
aI0
aI0
aI0
aI0
aI0
aI0
aI0
aI0
aI0
aI0
aI0
aI0
aI0
aI0
aI0
aI0
aI0
aI0
aI0
aI0
aI0
aI0
aI0
aI0
aI0
aI0
aI0
aI0
aI0
aI1
aa(lp46
I1
aI1
aI1
aI1
aI1
aI1
aI1
aI0
aI0
aI600
aI0
aI0
aI0
aI0
aI0
aI0
aI0
aI0
aI0
aI0
aI0
aI0
aI0
aI0
aI0
aI0
aI0
aI0
aI0
aI0
aI0
aI0
aI0
aI0
aI0
aI0
aI0
aI0
aI0
aI0
aI0
aI0
aI1
aI0
aI0
aI0
aa(lp47
I1
aI0
aI1
aF0.26317136141364156
aI0
aI0
aI1
aI0
aI0
aI600
aI0
aI0
aI0
aI0
aI0
aI0
aI0
aI0
aI0
aI0
aI0
aI0
aI0
aI0
aI0
aI0
aI0
aI0
aI0
aI0
aI0
aI0
aI0
aI0
aI0
aI0
aI0
aI0
aI0
aI0
aI0
aI0
aI0
aI0
aI0
aI1
aa(lp48
I1
aI1
aI1
aF0.19436771392667943
aI0
aF0.17417843002138775
aI1
aI0
aI0
aI600
aI0
aI0
aI0
aI0
aI0
aI0
aI0
aI0
aI0
aI0
aI0
aI0
aI0
aI0
aI0
aI0
aI0
aI0
aI0
aI0
aI0
aI0
aI0
aI0
aI0
aI0
aI0
aI0
aI0
aI0
aI0
aI0
aI0
aI0
aI0
aI1
aa(lp49
I1
aI1
aI1
aF0.2509060962922141
aI0
aF0.17417843002138775
aI1
aI0
aI0
aI600
aI0
aI0
aI0
aI0
aI0
aI0
aI0
aI0
aI0
aI0
aI0
aI0
aI0
aI0
aI0
aI0
aI0
aI0
aI0
aI0
aI0
aI0
aI0
aI0
aI0
aI0
aI0
aI0
aI0
aI0
aI0
aI0
aI0
aI0
aI0
aI0
aa(lp50
I1
aI1
aI1
aI1
aI1
aI1
aI1
aI0
aI0
aI600
aI0
aI0
aI0
aI0
aI0
aI0
aI0
aI0
aI0
aI0
aI0
aI0
aI0
aI0
aI0
aI0
aI0
aI0
aI0
aI0
aI0
aI0
aI0
aI0
aI0
aI0
aI0
aI0
aI0
aI0
aI0
aI0
aI1
aI0
aI0
aI0
aa(lp51
I1
aI0
aI1
aI1
aF0.1652192462484373
aI1
aI1
aI0
aI0
aI600
aI0
aI0
aI0
aI0
aI0
aI0
aI0
aI0
aI0
aI0
aI0
aI0
aI0
aI0
aI0
aI0
aI0
aI0
aI0
aI0
aI0
aI0
aI0
aI0
aI0
aI0
aI0
aI0
aI0
aI0
aI0
aI0
aI1
aI0
aI0
aI0
aa(lp52
I1
aI1
aI1
aI1
aI1
aI1
aI1
aI0
aI0
aI600
aI0
aI0
aI0
aI0
aI0
aI0
aI0
aI0
aI0
aI0
aI0
aI0
aI0
aI0
aI0
aI0
aI0
aI0
aI0
aI0
aI0
aI0
aI0
aI0
aI0
aI0
aI0
aI0
aI0
aI0
aI0
aI0
aI1
aI0
aI0
aI0
aa(lp53
(lp54
I1
aI0
aF0.17393829957055215
aI1
aF0.6264764452700349
aI1
aI1
aI0
aI0
aI600
aI0
aI0
aI0
aI0
aI0
aI0
aI0
aI0
aI0
aI0
aI0
aI0
aI0
aI0
aI0
aI0
aI0
aI0
aI0
aI0
aI1
aI1
aI0
aI1
aI0
aI0
aI0
aI0
aI0
aI0
aI0
aI0
aI0
aI0
aI0
aI0
aa(lp55
I1
aI1
aF0.14623139763227275
aI1
aF0.15551595633801849
aI1
aI1
aI0
aI0
aI600
aI1
aI0
aI0
aI0
aI0
aI0
aI0
aI0
aI0
aI0
aI0
aI0
aI0
aI0
aI0
aI0
aI0
aI0
aI0
aI0
aI0
aI0
aI0
aI1
aI0
aI0
aI0
aI0
aI0
aI0
aI0
aI0
aI0
aI0
aI0
aI0
aa(lp56
I1
aI1
aF0.17393829957055215
aI1
aI0
aF0.17417843002138775
aI1
aI0
aI0
aI600
aI0
aI1
aI0
aI0
aI0
aI0
aI0
aI0
aI0
aI0
aI0
aI0
aI0
aI0
aI0
aI0
aI0
aI0
aI0
aI0
aI0
aI0
aI0
aI0
aI0
aI0
aI0
aI0
aI0
aI0
aI0
aI0
aI0
aI0
aI0
aI0
aa(lp57
I1
aI1
aI1
aI1
aI0
aI1
aI1
aI0
aI0
aI600
aI0
aI1
aI0
aI0
aI0
aI0
aI0
aI0
aI0
aI0
aI0
aI0
aI0
aI0
aI0
aI0
aI0
aI0
aI0
aI0
aI0
aI0
aI0
aI0
aI0
aI0
aI0
aI0
aI0
aI0
aI0
aI0
aI0
aI0
aI0
aI0
aa(lp58
I1
aI1
aI1
aI1
aI0
aI1
aI1
aI0
aI0
aI600
aI1
aI0
aI0
aI0
aI0
aI0
aI0
aI0
aI0
aI0
aI0
aI0
aI0
aI0
aI0
aI0
aI0
aI0
aI0
aI0
aI0
aI0
aI0
aI0
aI0
aI0
aI0
aI0
aI0
aI0
aI0
aI0
aI0
aI0
aI0
aI0
aa(lp59
I1
aI1
aI1
aI1
aI0
aI1
aI1
aI0
aI0
aI600
aI1
aI0
aI0
aI0
aI0
aI0
aI0
aI0
aI0
aI0
aI0
aI0
aI0
aI0
aI0
aI0
aI0
aI0
aI0
aI0
aI0
aI0
aI0
aI1
aI0
aI0
aI0
aI0
aI0
aI0
aI0
aI0
aI0
aI0
aI0
aI0
aa(lp60
I1
aI1
aI1
aI1
aI0
aI1
aI1
aI0
aI0
aI600
aI0
aI0
aI0
aI0
aI0
aI0
aI0
aI0
aI0
aI0
aI0
aI0
aI0
aI0
aI0
aI0
aI0
aI0
aI0
aI0
aI0
aI0
aI0
aI0
aI0
aI0
aI0
aI0
aI0
aI0
aI0
aI0
aI0
aI0
aI0
aI0
aa(lp61
I1
aI1
aI1
aF0.16557874207576306
aI0
aF0.17417843002138775
aI1
aI0
aI0
aI600
aI0
aI1
aI0
aI0
aI0
aI0
aI0
aI0
aI0
aI0
aI0
aI0
aI0
aI0
aI0
aI0
aI0
aI0
aI0
aI0
aI0
aI0
aI0
aI0
aI0
aI0
aI0
aI0
aI0
aI0
aI0
aI0
aI0
aI0
aI0
aI0
aa(lp62
I1
aI1
aF0.17393829957055215
aI1
aF0.555013148927839
aI1
aI1
aI0
aI0
aI600
aI0
aI0
aI0
aI0
aI0
aI0
aI0
aI0
aI0
aI1
aI0
aI0
aI0
aI0
aI0
aI0
aI0
aI0
aI0
aI0
aI0
aI1
aI0
aI0
aI0
aI0
aI0
aI0
aI0
aI0
aI0
aI0
aI0
aI0
aI0
aI0
aa(lp63
I1
aI1
aI1
aI1
aF0.6264764452700349
aI1
aI1
aI0
aI0
aI600
aI0
aI0
aI0
aI0
aI0
aI0
aI0
aI0
aI0
aI0
aI0
aI0
aI0
aI0
aI0
aI0
aI0
aI0
aI0
aI0
aI1
aI1
aI0
aI1
aI0
aI0
aI0
aI0
aI0
aI0
aI0
aI0
aI0
aI0
aI0
aI0
aa(lp64
I1
aI1
aF0.17393829957055215
aI0
aI0
aI0
aI1
aI0
aI0
aI600
aI0
aI0
aI0
aI0
aI0
aI0
aI0
aI0
aI0
aI0
aI0
aI0
aI0
aI0
aI0
aI0
aI0
aI0
aI0
aI0
aI0
aI0
aI0
aI0
aI0
aI0
aI0
aI0
aI0
aI0
aI0
aI0
aI0
aI0
aI0
aI0
aa(lp65
I1
aI1
aI1
aF0.2028833327579083
aF0.29998092927617304
aI0
aI1
aI0
aI0
aI600
aI0
aI0
aI0
aI0
aI0
aI0
aI0
aI0
aI0
aI0
aI0
aI0
aI0
aI0
aI0
aI0
aI0
aI0
aI0
aI0
aI0
aI0
aI0
aI1
aI0
aI0
aI0
aI0
aI0
aI0
aI0
aI0
aI0
aI0
aI0
aI0
aa(lp66
I1
aI1
aI1
aI1
aI1
aI1
aI1
aI0
aI0
aI600
aI0
aI0
aI0
aI0
aI0
aI0
aI0
aI0
aI0
aI0
aI0
aI0
aI0
aI0
aI0
aI0
aI0
aI0
aI0
aI0
aI0
aI0
aI0
aI0
aI0
aI0
aI0
aI0
aI0
aI0
aI0
aI0
aI0
aI0
aI0
aI0
aa(lp67
I1
aI0
aI1
aI1
aF0.29998092927617304
aI1
aI1
aI0
aI0
aI600
aI0
aI0
aI0
aI0
aI0
aI0
aI0
aI0
aI0
aI0
aI0
aI0
aI0
aI0
aI0
aI0
aI0
aI0
aI0
aI0
aI0
aI0
aI0
aI1
aI0
aI0
aI0
aI0
aI0
aI0
aI0
aI0
aI0
aI0
aI0
aI0
aa(lp68
I1
aF0.555013148927839
aI1
aF0.15779967308059284
aI0
aI0
aI1
aI0
aI0
aI600
aI0
aI0
aI0
aI0
aI0
aI0
aI0
aI0
aI0
aI0
aI0
aI0
aI0
aI0
aI0
aI0
aI0
aI0
aI0
aI0
aI0
aI0
aI0
aI0
aI0
aI0
aI0
aI0
aI0
aI0
aI0
aI0
aI0
aI0
aI0
aI0
aa(lp69
I1
aI1
aI1
aI1
aF0.555013148927839
aI1
aI1
aI0
aI0
aI600
aI0
aI0
aI0
aI0
aI0
aI0
aI0
aI0
aI0
aI0
aI0
aI0
aI0
aI0
aI0
aI0
aI0
aI0
aI0
aI0
aI0
aI0
aI0
aI1
aI0
aI0
aI0
aI0
aI0
aI0
aI0
aI0
aI0
aI0
aI0
aI0
aa(lp70
I1
aI0
aI1
aI1
aF0.39497064239625734
aI1
aI1
aI0
aI0
aI600
aI0
aI0
aI0
aI0
aI0
aI0
aI0
aI0
aI0
aI0
aI0
aI0
aI0
aI0
aI0
aI0
aI0
aI0
aI0
aI0
aI0
aI0
aI0
aI1
aI0
aI0
aI0
aI0
aI0
aI0
aI0
aI0
aI0
aI0
aI0
aI0
aa(lp71
I1
aI0
aI1
aI1
aF0.12996240609844528
aI1
aI1
aI0
aI0
aI600
aI0
aI0
aI0
aI0
aI0
aI0
aI0
aI0
aI0
aI0
aI0
aI0
aI0
aI0
aI0
aI0
aI0
aI0
aI0
aI0
aI0
aI0
aI0
aI1
aI0
aI0
aI0
aI0
aI0
aI0
aI0
aI0
aI0
aI0
aI0
aI0
aa(lp72
I1
aI1
aF0.17393829957055215
aI1
aF0.2709217414774352
aI1
aI1
aI0
aI0
aI600
aI0
aI0
aI0
aI0
aI1
aI1
aI0
aI0
aI0
aI0
aI0
aI0
aI0
aI0
aI0
aI0
aI0
aI0
aI0
aI0
aI0
aI0
aI0
aI0
aI0
aI0
aI0
aI0
aI0
aI0
aI0
aI0
aI0
aI0
aI1
aI0
aa(lp73
I1
aI1
aI1
aF0.19587082446504103
aI0
aF0.17417843002138775
aI1
aI0
aI0
aI600
aI1
aI0
aI0
aI0
aI0
aI0
aI0
aI0
aI0
aI0
aI0
aI0
aI0
aI0
aI0
aI0
aI0
aI0
aI0
aI0
aI0
aI0
aI0
aI1
aI0
aI0
aI0
aI0
aI0
aI0
aI0
aI0
aI0
aI0
aI0
aI0
aa(lp74
I1
aI0
aI1
aI1
aF0.234869748029384
aI1
aI1
aI0
aI0
aI600
aI0
aI0
aI0
aI0
aI0
aI0
aI0
aI0
aI0
aI0
aI0
aI0
aI0
aI0
aI0
aI0
aI0
aI0
aI0
aI0
aI0
aI0
aI0
aI0
aI0
aI0
aI0
aI0
aI0
aI0
aI0
aI0
aI0
aI0
aI0
aI0
aa(lp75
I1
aI1
aI1
aF0.26317136141364156
aF0.39497064239625734
aF0.17417843002138775
aI1
aI0
aI0
aI600
aI1
aI0
aI0
aI0
aI0
aI0
aI0
aI0
aI0
aI0
aI0
aI0
aI0
aI0
aI0
aI0
aI0
aI0
aI0
aI0
aI0
aI0
aI0
aI1
aI0
aI0
aI0
aI0
aI0
aI0
aI0
aI0
aI0
aI0
aI0
aI0
aa(lp76
I1
aI1
aF0.17393829957055215
aF0.28136387185230444
aI0
aI0
aI1
aI0
aI0
aI600
aI0
aI0
aI0
aI0
aI0
aI0
aI0
aI0
aI0
aI0
aI0
aI0
aI0
aI0
aI0
aI0
aI0
aI0
aI0
aI0
aI0
aI0
aI0
aI0
aI0
aI0
aI0
aI0
aI0
aI0
aI0
aI0
aI0
aI0
aI0
aI0
aa(lp77
I1
aI1
aI1
aI1
aI0
aI1
aI1
aI0
aI0
aI600
aI0
aI0
aI0
aI0
aI0
aI0
aI0
aI0
aI0
aI0
aI0
aI0
aI0
aI0
aI0
aI0
aI0
aI0
aI0
aI0
aI0
aI0
aI0
aI0
aI0
aI0
aI0
aI0
aI0
aI0
aI0
aI0
aI0
aI0
aI0
aI0
aa(lp78
I1
aF0.09400894020119234
aI1
aI1
aF0.11147856481020386
aI1
aI1
aI0
aI0
aI600
aI0
aI1
aI0
aI0
aI0
aI0
aI0
aI0
aI0
aI0
aI0
aI0
aI0
aI0
aI0
aI0
aI0
aI0
aI0
aI0
aI0
aI0
aI0
aI1
aI0
aI0
aI0
aI0
aI0
aI0
aI0
aI0
aI0
aI0
aI0
aI0
aa(lp79
I1
aI1
aI1
aI1
aI1
aI1
aI1
aI0
aI0
aI600
aI1
aI0
aI0
aI0
aI0
aI0
aI0
aI0
aI0
aI0
aI0
aI0
aI0
aI0
aI0
aI0
aI0
aI0
aI0
aI0
aI0
aI0
aI0
aI1
aI0
aI0
aI0
aI0
aI0
aI0
aI0
aI0
aI0
aI0
aI0
aI0
aa(lp80
I1
aI1
aI1
aF0.28136387185230444
aI0
aI0
aI1
aI0
aI0
aI600
aI0
aI0
aI0
aI0
aI0
aI0
aI0
aI0
aI0
aI0
aI0
aI0
aI0
aI0
aI0
aI0
aI0
aI0
aI0
aI0
aI0
aI0
aI0
aI0
aI0
aI0
aI0
aI0
aI0
aI0
aI0
aI0
aI0
aI0
aI0
aI0
aa(lp81
VDenise removes 5 bananas from a jar. There were originally 46 bananas in the jar. How many bananas are left in the jar?\u000a
p82
aVJoyce starts with 75 apples. She gives 52 to Larry. How many apples does Joyce end with?\u000a
p83
aVAnne weighs 67 pounds. Douglas weighs 52 pounds. How much heavier is Anne than Douglas?\u000a
p84
aVCarlos starts with 39 bananas. 3 are eaten by a hippopotamus. How many bananas does Carlos end with?\u000a
p85
aVPatricia starts with 76 candies. Albert takes 5 away. How many candies does Patricia end with?\u000a
p86
aVThere are 13 oranges in a box. Victor takes 3 oranges. How many are left?\u000a
p87
aVRuby has 63 apples. Emily takes 55 away. How many apples will Ruby have?\u000a
p88
aVMeredith picked 347 apples. Phil ate 198 of the apples. How many apples are left?\u000a
p89
aVBeka flew 873 miles to visit her aunt. Jackson flew 563 miles to visit his aunt. How many more miles did Beka fly than Jackson?\u000a
p90
aVMary is baking a cake. The recipe wants 8 cups of flour. She already put in 2 cups. How many more cups does she need to add ?\u000a
p91
aVTom found 7 seashells, but 4 seashells were broken.  How many unbroken seashells did Tom find ?\u000a
p92
aVJoan has 8 orange balloons, but lost 2 of them. How many orange balloons does Joan have now ?\u000a
p93
aVFred had 7 dimes in his bank. His sister borrowed 3 of his dimes. How many dimes does Fred have now ?\u000a
p94
aVJoan's cat had 8 kittens. She gave 2 to her friends.  How many kittens does she have now ?\u000a
p95
aVBenny's high school played 39 baseball games this year. He attended  14 games. How many baseball games did Benny miss ?\u000a
p96
aVSam found 35 seashells on the beach, he gave Joan 18 of the seashells. How many seashells does he now have ?\u000a
p97
aVMike has 87 baseball cards. Sam bought 13 of Mike's  baseball cards. How many baseball cards does Mike have now ?\u000a
p98
aVDan has 64 violet marbles, he gave Mary 14 of the marbles. How many violet marbles does he now have ?\u000a
p99
aVSam had 98 pennies in his bank. He spent 93 of his pennies. How many pennies does he have now ?\u000a
p100
aVJoan found 79 seashells on the beach, she gave Mike 63 of the seashells. How many seashells does she now have ?\u000a
p101
aVMelanie's high school played 64 soccer games this year. She attended  32 games. How many soccer games did Melanie miss ?\u000a
p102
aVSally had 760 quarters in her bank. She spent 418 of her quarters. How many quarters does she have now ?\u000a
p103
aVFred's high school played 616 baseball games this year. He attended  147 games. How many baseball games did Fred miss ?\u000a
p104
aVJason has 676 Pokemon cards. Alyssa bought 224 of Jason's  Pokemon cards. How many Pokemon cards does Jason have now ?\u000a
p105
aVFred has 709 green balloons, he gave Sandy 221 of the balloons. How many green balloons does he now have ?\u000a
p106
aVJason has 3 Pokemon cards. Benny bought 2 of Jason's  Pokemon cards. How many Pokemon cards does Jason have now ?\u000a
p107
aVMike has 8 orange marbles, he gave Sam 4 of the marbles. How many orange marbles does he now have ?\u000a
p108
aVJoan had 5 dimes in her bank. She spent 2 of her dimes. How many dimes does she have now ?\u000a
p109
aVSam grew 4 watermelons, but the rabbits ate 3 watermelons. How many watermelons does Sam have left ?\u000a
p110
aVTom found 5 seashells on the beach. he gave Jessica 2 of the seashells. How many seashells does he now have ?\u000a
p111
aVFred has 5 baseball cards. Melanie bought 3 of Fred's  baseball cards. How many baseball cards does Fred have now ?\u000a
p112
aVhere are 9 oak trees currently in the park. Park workers had to cut down 2  oak trees that were damaged. How many oak trees will the park have when the workers are finished ?\u000a
p113
aVJessica had 8 quarters in her bank. Her sister borrowed 3 of her quarters. How many quarters does Jessica have now ?\u000a
p114
aVA restaurant made 9 hamburgers to serve during lunch. Only 3 were  actually served. How many hamburgers were left over from lunch ?\u000a
p115
aVThere are 7 crayons in the drawer. Mary took 3 crayons out of the drawer. How many crayons are there now ?\u000a
p116
aVDan picked 9 limes and gave Sara 4 of the limes.  How many limes does Dan have now ?\u000a
p117
aVDan found 7 seashells, but 3 were broken.  How many unbroken seashells did Dan find ?\u000a
p118
aVJoan has 9 blue balloons  but lost 2 of them. How many blue balloons does Joan have now ?\u000a
p119
aVJoan picked 43 apples from the orchard, and gave 27 apples  to  Melanie. How many apples does Joan have now ?\u000a
p120
aVAlyssa's high school played 31 hockey games this year. She attended  13 games. How many hockey games did Alyssa miss ?\u000a
p121
aVTom has 30 violet balloons, he gave Fred 16 of the balloons. How many violet balloons does he now have ?\u000a
p122
aVFred has 40 baseball cards. Keith bought 22 of Fred's  baseball cards. How many baseball cards does Fred have now ?\u000a
p123
aVFred found 47 seashells on the beach, he gave Jessica 25 of the seashells. How many seashells does he now have ?\u000a
p124
aVSara grew 43 pumpkins, but the rabbits ate 23 pumpkins. How many pumpkins does Sara have left ?\u000a
p125
aVJoan decided to sell all of her old books. She gathered up 33 books to sell. She sold 26 books in a yard sale. How many books does Joan now have ?\u000a
p126
aVThere are 46 rulers in the drawer. Tim took 25  rulers from the drawer. How many rulers are now in the drawer ?\u000a
p127
aVThere are 33 oak trees currently in the park. Park workers had to cut down  18 oak trees that were damaged. How many oak trees will be in the park when the workers are finished ?\u000a
p128
aVFirst museum she went to was the Metropolitan museum in New York. She donated 46 medieval art pieces from the 70 she originally has. How many medieval art pieces were left with her?\u000a
p129
aVThe next museum on her list is the Guggenheim in New York as well. There she gave 51 sets of Egyptian mask from her collection of 90. How many sets of masks were left in Alicia\ufffd\ufffd\ufffds collection?\u000a
p130
aVAfter New York, she decided to visit the Smithsonian in Washington DC. If she has 63 miniature aircrafts and she gave away 49 to the National Air and Space Museum, how many are left with her?\u000a
p131
aVYou have 24 cookies and want to share them equally with 6 people. How many cookies would each person get?\u000a
p132
aVYou are reading a book with 120 pages. If you want to read the same number of pages each night, how many would you have to read each night to finish in 10 days?\u000a
p133
aVA cereal box holds 18 cups of cereal. Each serving is 2 cups. How many servings are in the whole box?\u000a
p134
aVA box of books weighs 42 pounds. Each book weights 3 pounds. How many books are there in the box?\u000a
p135
aVSue\ufffd\ufffd\ufffds mother made 75 cookies. She put the cookies in bags, with 3 cookies in each bag. How many bags could she fill up?\u000a
p136
aVAn airplane hangar is 300 feet long. How many planes can fit into it, end to end, if each plane is 40 feet long?\u000a
p137
aVIt takes 3 eggs to make a cake. How many cakes can you make with 37 eggs?\u000a
p138
aV105 people are going to a movie. 6 people can ride in each car. How many cars are needed to get all 105 people to the movie?\u000a
p139
aVMs. Baker has 17 cupcakes. She wants to share them equally among her 3 children so that no one gets more than anyone else. If she gives each child as many cupcakes as possible, how many cupcakes will be left over for Ms. Baker to eat?\u000a
p140
aV89 cookies are being shared equally among 4 people. How many does each person get? \u000a
p141
aVDeborah is running a marathon. She can run 4 miles in an hour. How long will it take her to run 26 miles?\u000a
p142
aV256 students are going to the zoo. They have to be divided into groups so that each teacher has one group. There are 8 teachers. How many students will be in each group?\u000a
p143
aVA fruit farm packs oranges in boxes that hold 10 each. One day it packs 2650 oranges. How many boxes did they use?\u000a
p144
aVYou want to give your baseball cards to your 5 best friends. You have 455 baseball cards. How many would each get, if you share them equally?\u000a
p145
aVMike has 45 dollars in 5 dollar bills.  How many 5 dollars bills does  he have ?\u000a
p146
aVA restaurant sold 63 hamburgers last 7 days. How many hamburgers on average were sold each day ?\u000a
p147
aVDan was at the beach for 5 days and found 36 seashells. He plans to give all of his seashells equally to his 4 friends. How many seashells will each friend get ?\u000a
p148
aVSandy worked 45 hours in the last 5 days. Assuming that she worked the same amount of hours each day, how long did she work each day ?\u000a
p149
aVThere were a total of 27 soccer games during the 3 month season.  If the games are equally divided, how many soccer games are played a month ?\u000a
p150
aVThere are 390 students at a school. If each classroom holds 30 students, how many classrooms are needed at the school?\u000a
p151
aVNancy bought 615 crayons that came in packs of 15.  How many packs of crayons did Nancy buy?\u000a
p152
aVA teacher has 344 pieces of candy. If there are 43 students, and the candy is divided evenly, How many pieces will each student get?\u000a
p153
aVShe counted her crayons and found out that she has 80 crayons which she will place in crayon boxes. Every crayon box can contain 8 crayons. How many crayon boxes does she need?\u000a
p154
aVBeside the pile of clean white paper was a stack of 700 sheets of used paper. She wants to place it in boxes for recycling. If every box can contain 100 sheets, how many boxes does she need?\u000a
p155
aVLexie\ufffd\ufffd\ufffds younger brother helped pick up all the paper clips in Lexie\ufffd\ufffd\ufffds room. He was able to collect 81 paper clips. If he wants to distribute the paper clips in 9 boxes, how many paper clips will each box contain?\u000a
p156
aVWhen relatives visit Haley and her family, she and her cousins do origami. If she has 48 origami papers to give away to her 6 cousins, how many will each receive if she gives everyone the same number of origami papers?\u000a
p157
aVHaley has 63 magazines in her cabinet. She plans to send it to the recycling office in their area. If she places it in boxes which can contain 9 magazines, how many boxes will she use?\u000a
p158
atp159
sS'*'
p160
((lp161
g54
ag55
ag56
ag57
ag58
ag59
ag60
ag61
ag62
ag63
ag64
ag65
ag66
ag67
ag68
ag69
ag70
ag71
ag72
ag73
ag74
ag75
ag76
ag77
ag78
ag79
ag80
a(lp162
g3
ag4
ag5
ag6
ag7
ag8
ag9
ag10
ag11
ag12
ag13
ag14
ag15
ag16
ag17
ag18
ag19
ag20
ag21
ag22
ag23
ag24
ag25
ag26
ag27
ag28
ag29
ag30
ag31
ag32
ag33
ag34
ag35
ag36
ag37
ag38
ag39
ag40
ag41
ag42
ag43
ag44
ag45
ag46
ag47
ag48
ag49
ag50
ag51
ag52
a(lp163
VDenise removes 5 bananas from a jar. There were originally 46 bananas in the jar. How many bananas are left in the jar?\u000a
p164
aVJoyce starts with 75 apples. She gives 52 to Larry. How many apples does Joyce end with?\u000a
p165
aVAnne weighs 67 pounds. Douglas weighs 52 pounds. How much heavier is Anne than Douglas?\u000a
p166
aVCarlos starts with 39 bananas. 3 are eaten by a hippopotamus. How many bananas does Carlos end with?\u000a
p167
aVPatricia starts with 76 candies. Albert takes 5 away. How many candies does Patricia end with?\u000a
p168
aVThere are 13 oranges in a box. Victor takes 3 oranges. How many are left?\u000a
p169
aVRuby has 63 apples. Emily takes 55 away. How many apples will Ruby have?\u000a
p170
aVMeredith picked 347 apples. Phil ate 198 of the apples. How many apples are left?\u000a
p171
aVBeka flew 873 miles to visit her aunt. Jackson flew 563 miles to visit his aunt. How many more miles did Beka fly than Jackson?\u000a
p172
aVMary is baking a cake. The recipe wants 8 cups of flour. She already put in 2 cups. How many more cups does she need to add ?\u000a
p173
aVTom found 7 seashells, but 4 seashells were broken.  How many unbroken seashells did Tom find ?\u000a
p174
aVJoan has 8 orange balloons, but lost 2 of them. How many orange balloons does Joan have now ?\u000a
p175
aVFred had 7 dimes in his bank. His sister borrowed 3 of his dimes. How many dimes does Fred have now ?\u000a
p176
aVJoan's cat had 8 kittens. She gave 2 to her friends.  How many kittens does she have now ?\u000a
p177
aVBenny's high school played 39 baseball games this year. He attended  14 games. How many baseball games did Benny miss ?\u000a
p178
aVSam found 35 seashells on the beach, he gave Joan 18 of the seashells. How many seashells does he now have ?\u000a
p179
aVMike has 87 baseball cards. Sam bought 13 of Mike's  baseball cards. How many baseball cards does Mike have now ?\u000a
p180
aVDan has 64 violet marbles, he gave Mary 14 of the marbles. How many violet marbles does he now have ?\u000a
p181
aVSam had 98 pennies in his bank. He spent 93 of his pennies. How many pennies does he have now ?\u000a
p182
aVJoan found 79 seashells on the beach, she gave Mike 63 of the seashells. How many seashells does she now have ?\u000a
p183
aVMelanie's high school played 64 soccer games this year. She attended  32 games. How many soccer games did Melanie miss ?\u000a
p184
aVSally had 760 quarters in her bank. She spent 418 of her quarters. How many quarters does she have now ?\u000a
p185
aVFred's high school played 616 baseball games this year. He attended  147 games. How many baseball games did Fred miss ?\u000a
p186
aVJason has 676 Pokemon cards. Alyssa bought 224 of Jason's  Pokemon cards. How many Pokemon cards does Jason have now ?\u000a
p187
aVFred has 709 green balloons, he gave Sandy 221 of the balloons. How many green balloons does he now have ?\u000a
p188
aVJason has 3 Pokemon cards. Benny bought 2 of Jason's  Pokemon cards. How many Pokemon cards does Jason have now ?\u000a
p189
aVMike has 8 orange marbles, he gave Sam 4 of the marbles. How many orange marbles does he now have ?\u000a
p190
aVJoan had 5 dimes in her bank. She spent 2 of her dimes. How many dimes does she have now ?\u000a
p191
aVSam grew 4 watermelons, but the rabbits ate 3 watermelons. How many watermelons does Sam have left ?\u000a
p192
aVTom found 5 seashells on the beach. he gave Jessica 2 of the seashells. How many seashells does he now have ?\u000a
p193
aVFred has 5 baseball cards. Melanie bought 3 of Fred's  baseball cards. How many baseball cards does Fred have now ?\u000a
p194
aVhere are 9 oak trees currently in the park. Park workers had to cut down 2  oak trees that were damaged. How many oak trees will the park have when the workers are finished ?\u000a
p195
aVJessica had 8 quarters in her bank. Her sister borrowed 3 of her quarters. How many quarters does Jessica have now ?\u000a
p196
aVA restaurant made 9 hamburgers to serve during lunch. Only 3 were  actually served. How many hamburgers were left over from lunch ?\u000a
p197
aVThere are 7 crayons in the drawer. Mary took 3 crayons out of the drawer. How many crayons are there now ?\u000a
p198
aVDan picked 9 limes and gave Sara 4 of the limes.  How many limes does Dan have now ?\u000a
p199
aVDan found 7 seashells, but 3 were broken.  How many unbroken seashells did Dan find ?\u000a
p200
aVJoan has 9 blue balloons  but lost 2 of them. How many blue balloons does Joan have now ?\u000a
p201
aVJoan picked 43 apples from the orchard, and gave 27 apples  to  Melanie. How many apples does Joan have now ?\u000a
p202
aVAlyssa's high school played 31 hockey games this year. She attended  13 games. How many hockey games did Alyssa miss ?\u000a
p203
aVTom has 30 violet balloons, he gave Fred 16 of the balloons. How many violet balloons does he now have ?\u000a
p204
aVFred has 40 baseball cards. Keith bought 22 of Fred's  baseball cards. How many baseball cards does Fred have now ?\u000a
p205
aVFred found 47 seashells on the beach, he gave Jessica 25 of the seashells. How many seashells does he now have ?\u000a
p206
aVSara grew 43 pumpkins, but the rabbits ate 23 pumpkins. How many pumpkins does Sara have left ?\u000a
p207
aVJoan decided to sell all of her old books. She gathered up 33 books to sell. She sold 26 books in a yard sale. How many books does Joan now have ?\u000a
p208
aVThere are 46 rulers in the drawer. Tim took 25  rulers from the drawer. How many rulers are now in the drawer ?\u000a
p209
aVThere are 33 oak trees currently in the park. Park workers had to cut down  18 oak trees that were damaged. How many oak trees will be in the park when the workers are finished ?\u000a
p210
aVFirst museum she went to was the Metropolitan museum in New York. She donated 46 medieval art pieces from the 70 she originally has. How many medieval art pieces were left with her?\u000a
p211
aVThe next museum on her list is the Guggenheim in New York as well. There she gave 51 sets of Egyptian mask from her collection of 90. How many sets of masks were left in Alicia\ufffd\ufffd\ufffds collection?\u000a
p212
aVAfter New York, she decided to visit the Smithsonian in Washington DC. If she has 63 miniature aircrafts and she gave away 49 to the National Air and Space Museum, how many are left with her?\u000a
p213
aVYou have 24 cookies and want to share them equally with 6 people. How many cookies would each person get?\u000a
p214
aVYou are reading a book with 120 pages. If you want to read the same number of pages each night, how many would you have to read each night to finish in 10 days?\u000a
p215
aVA cereal box holds 18 cups of cereal. Each serving is 2 cups. How many servings are in the whole box?\u000a
p216
aVA box of books weighs 42 pounds. Each book weights 3 pounds. How many books are there in the box?\u000a
p217
aVSue\ufffd\ufffd\ufffds mother made 75 cookies. She put the cookies in bags, with 3 cookies in each bag. How many bags could she fill up?\u000a
p218
aVAn airplane hangar is 300 feet long. How many planes can fit into it, end to end, if each plane is 40 feet long?\u000a
p219
aVIt takes 3 eggs to make a cake. How many cakes can you make with 37 eggs?\u000a
p220
aV105 people are going to a movie. 6 people can ride in each car. How many cars are needed to get all 105 people to the movie?\u000a
p221
aVMs. Baker has 17 cupcakes. She wants to share them equally among her 3 children so that no one gets more than anyone else. If she gives each child as many cupcakes as possible, how many cupcakes will be left over for Ms. Baker to eat?\u000a
p222
aV89 cookies are being shared equally among 4 people. How many does each person get? \u000a
p223
aVDeborah is running a marathon. She can run 4 miles in an hour. How long will it take her to run 26 miles?\u000a
p224
aV256 students are going to the zoo. They have to be divided into groups so that each teacher has one group. There are 8 teachers. How many students will be in each group?\u000a
p225
aVA fruit farm packs oranges in boxes that hold 10 each. One day it packs 2650 oranges. How many boxes did they use?\u000a
p226
aVYou want to give your baseball cards to your 5 best friends. You have 455 baseball cards. How many would each get, if you share them equally?\u000a
p227
aVMike has 45 dollars in 5 dollar bills.  How many 5 dollars bills does  he have ?\u000a
p228
aVA restaurant sold 63 hamburgers last 7 days. How many hamburgers on average were sold each day ?\u000a
p229
aVDan was at the beach for 5 days and found 36 seashells. He plans to give all of his seashells equally to his 4 friends. How many seashells will each friend get ?\u000a
p230
aVSandy worked 45 hours in the last 5 days. Assuming that she worked the same amount of hours each day, how long did she work each day ?\u000a
p231
aVThere were a total of 27 soccer games during the 3 month season.  If the games are equally divided, how many soccer games are played a month ?\u000a
p232
aVThere are 390 students at a school. If each classroom holds 30 students, how many classrooms are needed at the school?\u000a
p233
aVNancy bought 615 crayons that came in packs of 15.  How many packs of crayons did Nancy buy?\u000a
p234
aVA teacher has 344 pieces of candy. If there are 43 students, and the candy is divided evenly, How many pieces will each student get?\u000a
p235
aVShe counted her crayons and found out that she has 80 crayons which she will place in crayon boxes. Every crayon box can contain 8 crayons. How many crayon boxes does she need?\u000a
p236
aVBeside the pile of clean white paper was a stack of 700 sheets of used paper. She wants to place it in boxes for recycling. If every box can contain 100 sheets, how many boxes does she need?\u000a
p237
aVLexie\ufffd\ufffd\ufffds younger brother helped pick up all the paper clips in Lexie\ufffd\ufffd\ufffds room. He was able to collect 81 paper clips. If he wants to distribute the paper clips in 9 boxes, how many paper clips will each box contain?\u000a
p238
aVWhen relatives visit Haley and her family, she and her cousins do origami. If she has 48 origami papers to give away to her 6 cousins, how many will each receive if she gives everyone the same number of origami papers?\u000a
p239
aVHaley has 63 magazines in her cabinet. She plans to send it to the recycling office in their area. If she places it in boxes which can contain 9 magazines, how many boxes will she use?\u000a
p240
atp241
s.