(dp0
S'+'
p1
((lp2
(lp3
I1
aI1
aF0.14623139763227275
aI1
aF0.6264764452700349
aI1
aI1
aI0
aI0
aI0
aI1
aI0
aI0
aI600
aI1
aI0
aI0
aI0
aI0
aI0
aI0
aI0
aI0
aI0
aI0
aI0
aI0
aI0
aI0
aI0
aI0
aI0
aI0
aI0
aI0
aI0
aI0
aI0
aI0
aI0
aI0
aI0
aI0
aI0
aI0
aI0
aI0
aI0
aI0
aI0
aI0
aa(lp4
I1
aI1
aF0.17393829957055215
aI0
aF0.3000986344609609
aF0.17417843002138775
aI1
aI0
aI0
aI0
aI0
aI0
aI0
aI600
aI0
aI0
aI0
aI0
aI0
aI0
aI0
aI0
aI0
aI0
aI0
aI0
aI0
aI0
aI0
aI0
aI0
aI0
aI0
aI0
aI0
aI0
aI0
aI0
aI0
aI0
aI0
aI0
aI0
aI0
aI0
aI0
aI0
aI0
aI0
aI0
aI0
aa(lp5
I1
aI1
aF0.17393829957055215
aI1
aF0.2709217414774352
aI1
aI1
aI0
aI0
aI0
aI0
aI0
aI0
aI600
aI0
aI0
aI1
aI0
aI0
aI0
aI0
aI0
aI0
aI0
aI0
aI0
aI0
aI0
aI0
aI0
aI0
aI0
aI0
aI0
aI0
aI0
aI0
aI0
aI0
aI0
aI0
aI0
aI0
aI0
aI0
aI0
aI0
aI0
aI0
aI0
aI0
aa(lp6
I1
aI1
aF0.14623139763227275
aF0.26317136141364156
aF0.1283075585112721
aF0.17417843002138775
aI1
aI0
aI0
aI0
aI1
aI0
aI0
aI600
aI1
aI0
aI0
aI0
aI0
aI0
aI0
aI0
aI0
aI0
aI0
aI0
aI0
aI0
aI0
aI0
aI0
aI0
aI0
aI0
aI0
aI0
aI1
aI0
aI0
aI0
aI0
aI0
aI0
aI0
aI0
aI0
aI0
aI0
aI0
aI0
aI0
aa(lp7
I1
aI1
aI1
aI1
aF0.2709217414774352
aI1
aI1
aI0
aI0
aI0
aI0
aI0
aI0
aI600
aI0
aI0
aI0
aI0
aI0
aI0
aI0
aI0
aI0
aI0
aI0
aI0
aI0
aI0
aI0
aI0
aI0
aI0
aI0
aI0
aI0
aI0
aI0
aI0
aI0
aI0
aI0
aI0
aI0
aI0
aI0
aI0
aI0
aI0
aI0
aI0
aI0
aa(lp8
I1
aI1
aI1
aI1
aF0.2709217414774352
aI1
aI1
aI0
aI0
aI0
aI0
aI0
aI0
aI600
aI0
aI0
aI0
aI0
aI0
aI0
aI0
aI0
aI0
aI0
aI0
aI0
aI0
aI0
aI0
aI0
aI0
aI0
aI0
aI0
aI0
aI0
aI0
aI0
aI0
aI0
aI0
aI0
aI0
aI0
aI0
aI0
aI0
aI0
aI0
aI0
aI0
aa(lp9
I1
aI1
aF0.17393829957055215
aI1
aF0.6264764452700349
aI1
aI1
aI0
aI0
aI0
aI0
aI0
aI1
aI600
aI0
aI0
aI0
aI0
aI0
aI0
aI0
aI0
aI0
aI0
aI0
aI0
aI0
aI0
aI0
aI0
aI0
aI0
aI0
aI0
aI0
aI0
aI0
aI0
aI0
aI0
aI0
aI0
aI0
aI0
aI0
aI0
aI0
aI0
aI0
aI0
aI0
aa(lp10
I1
aF1e-300
aI1
aI0
aF0.07796333216797775
aI0
aI1
aI0
aI0
aI0
aI0
aI0
aI0
aI600
aI0
aI0
aI0
aI0
aI0
aI0
aI0
aI0
aI0
aI0
aI0
aI0
aI0
aI0
aI0
aI0
aI0
aI0
aI0
aI0
aI0
aI0
aI0
aI0
aI0
aI0
aI0
aI0
aI0
aI0
aI0
aI0
aI0
aI0
aI0
aI0
aI0
aa(lp11
I1
aF0.23058976593992853
aF0.16133424034626279
aI1
aF0.12996240609844528
aI1
aI1
aI0
aI0
aI0
aI0
aI0
aI1
aI600
aI0
aI0
aI0
aI0
aI0
aI0
aI0
aI0
aI0
aI0
aI0
aI0
aI0
aI0
aI0
aI0
aI0
aI0
aI0
aI0
aI0
aI0
aI0
aI0
aI0
aI0
aI0
aI0
aI0
aI0
aI0
aI0
aI0
aI0
aI0
aI0
aI0
aa(lp12
I1
aI1
aF0.17393829957055215
aI1
aF0.13404407351310227
aI1
aI1
aI0
aI0
aI0
aI0
aI0
aI0
aI600
aI0
aI0
aI0
aI0
aI0
aI0
aI0
aI0
aI0
aI0
aI0
aI0
aI0
aI0
aI0
aI0
aI0
aI0
aI0
aI0
aI0
aI0
aI0
aI0
aI0
aI0
aI0
aI0
aI0
aI0
aI0
aI0
aI0
aI0
aI0
aI0
aI0
aa(lp13
I1
aI1
aI1
aI1
aF0.2709217414774352
aI1
aI1
aI0
aI0
aI0
aI0
aI0
aI1
aI600
aI0
aI0
aI0
aI0
aI0
aI0
aI0
aI0
aI0
aI0
aI0
aI0
aI0
aI0
aI0
aI0
aI0
aI0
aI0
aI0
aI0
aI0
aI0
aI0
aI0
aI0
aI0
aI0
aI0
aI0
aI0
aI0
aI0
aI0
aI0
aI0
aI0
aa(lp14
I1
aI1
aF0.17393829957055215
aI1
aF0.1405027412693133
aI1
aI1
aI0
aI0
aI0
aI0
aI1
aI0
aI600
aI0
aI0
aI0
aI0
aI0
aI0
aI0
aI0
aI0
aI0
aI0
aI0
aI0
aI0
aI0
aI0
aI0
aI0
aI0
aI0
aI0
aI0
aI0
aI0
aI0
aI0
aI0
aI0
aI0
aI0
aI0
aI0
aI0
aI0
aI0
aI0
aI0
aa(lp15
I1
aI1
aF0.17393829957055215
aF0.28167468250923683
aF0.1892211464008919
aI0
aI1
aI0
aI0
aI0
aI0
aI1
aI0
aI600
aI0
aI0
aI0
aI0
aI0
aI0
aI0
aI0
aI0
aI0
aI0
aI0
aI0
aI0
aI0
aI0
aI0
aI0
aI0
aI0
aI0
aI0
aI0
aI0
aI0
aI0
aI0
aI0
aI0
aI0
aI0
aI0
aI0
aI0
aI0
aI0
aI0
aa(lp16
I1
aI1
aI1
aI1
aF0.1892211464008919
aI1
aI1
aI0
aI0
aI0
aI1
aI1
aI0
aI600
aI1
aI0
aI0
aI0
aI0
aI0
aI0
aI0
aI0
aI0
aI0
aI0
aI0
aI0
aI0
aI0
aI0
aI0
aI0
aI0
aI0
aI0
aI0
aI0
aI0
aI0
aI0
aI0
aI0
aI0
aI0
aI0
aI0
aI0
aI0
aI0
aI0
aa(lp17
I1
aI1
aF0.17393829957055215
aI1
aF0.27627027514942604
aI1
aI1
aI0
aI0
aI0
aI0
aI0
aI0
aI600
aI0
aI0
aI0
aI0
aI0
aI0
aI0
aI0
aI0
aI0
aI0
aI0
aI0
aI0
aI0
aI0
aI0
aI0
aI0
aI0
aI0
aI0
aI0
aI0
aI0
aI0
aI0
aI0
aI0
aI0
aI0
aI0
aI0
aI0
aI0
aI0
aI0
aa(lp18
I1
aF0.09400894020119234
aF0.17393829957055215
aI1
aF0.2709217414774352
aI1
aI1
aI0
aI0
aI1
aI0
aI0
aI1
aI600
aI0
aI1
aI0
aI0
aI0
aI0
aI0
aI0
aI0
aI0
aI0
aI0
aI0
aI0
aI0
aI0
aI0
aI0
aI0
aI0
aI0
aI0
aI0
aI0
aI0
aI0
aI0
aI0
aI0
aI0
aI0
aI0
aI0
aI0
aI0
aI0
aI0
aa(lp19
I1
aI1
aF0.14623139763227275
aI1
aF0.1892211464008919
aI1
aI1
aI0
aI0
aI0
aI0
aI0
aI0
aI600
aI0
aI0
aI0
aI0
aI0
aI0
aI0
aI0
aI0
aI0
aI0
aI0
aI0
aI0
aI0
aI0
aI0
aI0
aI0
aI0
aI0
aI0
aI0
aI0
aI0
aI0
aI0
aI0
aI0
aI0
aI0
aI0
aI0
aI0
aI0
aI0
aI0
aa(lp20
I1
aI0
aF0.16133424034626279
aI1
aF0.10399036905218154
aI1
aI1
aI0
aI0
aI0
aI0
aI0
aI0
aI600
aI0
aI0
aI0
aI0
aI1
aI0
aI0
aI0
aI0
aI0
aI0
aI0
aI0
aI0
aI0
aI0
aI0
aI0
aI0
aI0
aI0
aI0
aI0
aI0
aI0
aI0
aI1
aI0
aI0
aI0
aI0
aI0
aI0
aI0
aI0
aI0
aI0
aa(lp21
I1
aF0.555013148927839
aF0.16133424034626279
aI0
aF0.09972554926361525
aI0
aI1
aI0
aI0
aI0
aI0
aI0
aI0
aI600
aI0
aI0
aI0
aI0
aI0
aI0
aI0
aI0
aI0
aI0
aI0
aI0
aI0
aI0
aI0
aI0
aI0
aI0
aI0
aI0
aI0
aI0
aI0
aI0
aI0
aI0
aI0
aI0
aI0
aI0
aI0
aI0
aI0
aI0
aI0
aI0
aI0
aa(lp22
F0.2709217414774352
aI1
aI1
aI1
aF0.12154946780513323
aI1
aI1
aI0
aI0
aI0
aI0
aI1
aI0
aI600
aI0
aI0
aI0
aI0
aI0
aI0
aI0
aI0
aI0
aI0
aI0
aI0
aI0
aI0
aI0
aI0
aI0
aI0
aI0
aI0
aI0
aI0
aI0
aI0
aI0
aI0
aI0
aI0
aI0
aI0
aI0
aI0
aI0
aI0
aI0
aI0
aI0
aa(lp23
I1
aI1
aI1
aF0.26317136141364156
aF0.39497064239625734
aF0.17417843002138775
aI1
aI0
aI0
aI0
aI1
aI0
aI0
aI600
aI1
aI0
aI0
aI0
aI0
aI0
aI0
aI0
aI0
aI0
aI0
aI0
aI0
aI0
aI0
aI0
aI0
aI0
aI0
aI0
aI0
aI0
aI0
aI0
aI0
aI0
aI0
aI0
aI0
aI0
aI0
aI0
aI0
aI0
aI0
aI0
aI0
aa(lp24
I1
aI1
aF0.17393829957055215
aF0.26317136141364156
aF0.234869748029384
aF0.17417843002138775
aI1
aI0
aI0
aI1
aI0
aI0
aI0
aI600
aI0
aI1
aI0
aI0
aI0
aI0
aI0
aI0
aI0
aI0
aI0
aI0
aI0
aI0
aI0
aI0
aI0
aI0
aI0
aI0
aI0
aI0
aI0
aI0
aI0
aI0
aI0
aI0
aI0
aI0
aI0
aI0
aI0
aI0
aI0
aI0
aI0
aa(lp25
I1
aI1
aI1
aI1
aI1
aI1
aI1
aI0
aI0
aI0
aI0
aI0
aI1
aI600
aI0
aI0
aI0
aI0
aI0
aI0
aI0
aI0
aI0
aI0
aI0
aI0
aI0
aI0
aI0
aI0
aI0
aI0
aI0
aI0
aI0
aI0
aI0
aI0
aI0
aI0
aI0
aI0
aI0
aI0
aI0
aI0
aI0
aI0
aI0
aI0
aI0
aa(lp26
(lp27
I1
aI0
aF0.17393829957055215
aI1
aF0.6264764452700349
aI1
aI1
aI0
aI0
aI0
aI0
aI0
aI1
aI600
aI0
aI0
aI0
aI0
aI0
aI0
aI0
aI0
aI0
aI0
aI0
aI0
aI0
aI0
aI0
aI0
aI0
aI0
aI0
aI0
aI1
aI1
aI0
aI0
aI1
aI0
aI0
aI0
aI0
aI0
aI0
aI0
aI0
aI0
aI0
aI0
aI0
aa(lp28
I1
aI1
aF0.14623139763227275
aI1
aF0.15551595633801849
aI1
aI1
aI0
aI0
aI0
aI0
aI0
aI0
aI600
aI1
aI0
aI0
aI0
aI0
aI0
aI0
aI0
aI0
aI0
aI0
aI0
aI0
aI0
aI0
aI0
aI0
aI0
aI0
aI0
aI0
aI0
aI0
aI0
aI1
aI0
aI0
aI0
aI0
aI0
aI0
aI0
aI0
aI0
aI0
aI0
aI0
aa(lp29
I1
aI1
aF0.17393829957055215
aI1
aI0
aF0.17417843002138775
aI1
aI0
aI0
aI0
aI0
aI0
aI0
aI600
aI1
aI0
aI0
aI0
aI0
aI0
aI0
aI0
aI0
aI0
aI0
aI0
aI0
aI0
aI0
aI0
aI0
aI0
aI0
aI0
aI0
aI0
aI0
aI0
aI0
aI0
aI0
aI0
aI0
aI0
aI0
aI0
aI0
aI0
aI0
aI0
aI0
aa(lp30
I1
aI1
aI1
aI1
aI0
aI1
aI1
aI0
aI0
aI0
aI0
aI0
aI0
aI600
aI0
aI1
aI0
aI0
aI0
aI0
aI0
aI0
aI0
aI0
aI0
aI0
aI0
aI0
aI0
aI0
aI0
aI0
aI0
aI0
aI0
aI0
aI0
aI0
aI0
aI0
aI0
aI0
aI0
aI0
aI0
aI0
aI0
aI0
aI0
aI0
aI0
aa(lp31
I1
aI1
aI1
aI1
aI0
aI1
aI1
aI0
aI0
aI0
aI0
aI0
aI0
aI600
aI1
aI0
aI0
aI0
aI0
aI0
aI0
aI0
aI0
aI0
aI0
aI0
aI0
aI0
aI0
aI0
aI0
aI0
aI0
aI0
aI0
aI0
aI0
aI0
aI0
aI0
aI0
aI0
aI0
aI0
aI0
aI0
aI0
aI0
aI0
aI0
aI0
aa(lp32
I1
aI1
aI1
aI1
aI0
aI1
aI1
aI0
aI0
aI0
aI0
aI0
aI0
aI600
aI1
aI0
aI0
aI0
aI0
aI0
aI0
aI0
aI0
aI0
aI0
aI0
aI0
aI0
aI0
aI0
aI0
aI0
aI0
aI0
aI0
aI0
aI0
aI0
aI1
aI0
aI0
aI0
aI0
aI0
aI0
aI0
aI0
aI0
aI0
aI0
aI0
aa(lp33
I1
aI1
aI1
aI1
aI0
aI1
aI1
aI0
aI0
aI0
aI0
aI0
aI0
aI600
aI0
aI0
aI0
aI0
aI0
aI0
aI0
aI0
aI0
aI0
aI0
aI0
aI0
aI0
aI0
aI0
aI0
aI0
aI0
aI0
aI0
aI0
aI0
aI0
aI0
aI0
aI0
aI0
aI0
aI0
aI0
aI0
aI0
aI0
aI0
aI0
aI0
aa(lp34
I1
aI1
aI1
aF0.16557874207576306
aI0
aF0.17417843002138775
aI1
aI0
aI0
aI0
aI0
aI0
aI0
aI600
aI0
aI1
aI0
aI0
aI0
aI0
aI0
aI0
aI0
aI0
aI0
aI0
aI0
aI0
aI0
aI0
aI0
aI0
aI0
aI0
aI0
aI0
aI0
aI0
aI0
aI0
aI0
aI0
aI0
aI0
aI0
aI0
aI0
aI0
aI0
aI0
aI0
aa(lp35
I1
aI1
aF0.17393829957055215
aI1
aF0.555013148927839
aI1
aI1
aI0
aI0
aI0
aI0
aI0
aI0
aI600
aI0
aI0
aI0
aI0
aI0
aI0
aI0
aI0
aI0
aI1
aI0
aI0
aI0
aI0
aI0
aI0
aI0
aI0
aI0
aI0
aI0
aI1
aI0
aI0
aI0
aI0
aI0
aI0
aI0
aI0
aI0
aI0
aI0
aI0
aI0
aI0
aI0
aa(lp36
I1
aI1
aI1
aI1
aF0.6264764452700349
aI1
aI1
aI0
aI0
aI0
aI0
aI0
aI0
aI600
aI0
aI0
aI0
aI0
aI0
aI0
aI0
aI0
aI0
aI0
aI0
aI0
aI0
aI0
aI0
aI0
aI0
aI0
aI0
aI0
aI1
aI1
aI0
aI0
aI1
aI0
aI0
aI0
aI0
aI0
aI0
aI0
aI0
aI0
aI0
aI0
aI0
aa(lp37
I1
aI1
aF0.17393829957055215
aI0
aI0
aI0
aI1
aI0
aI0
aI0
aI0
aI0
aI0
aI600
aI0
aI0
aI0
aI0
aI0
aI0
aI0
aI0
aI0
aI0
aI0
aI0
aI0
aI0
aI0
aI0
aI0
aI0
aI0
aI0
aI0
aI0
aI0
aI0
aI0
aI0
aI0
aI0
aI0
aI0
aI0
aI0
aI0
aI0
aI0
aI0
aI0
aa(lp38
I1
aI1
aI1
aF0.2028833327579083
aF0.29998092927617304
aI0
aI1
aI0
aI0
aI0
aI1
aI1
aI0
aI600
aI0
aI0
aI0
aI0
aI0
aI0
aI0
aI0
aI0
aI0
aI0
aI0
aI0
aI0
aI0
aI0
aI0
aI0
aI0
aI0
aI0
aI0
aI0
aI0
aI1
aI0
aI0
aI0
aI0
aI0
aI0
aI0
aI0
aI0
aI0
aI0
aI0
aa(lp39
I1
aI1
aI1
aI1
aI1
aI1
aI1
aI0
aI0
aI0
aI0
aI0
aI0
aI600
aI0
aI0
aI0
aI0
aI0
aI0
aI0
aI0
aI0
aI0
aI0
aI0
aI0
aI0
aI0
aI0
aI0
aI0
aI0
aI0
aI0
aI0
aI0
aI0
aI0
aI0
aI0
aI0
aI0
aI0
aI0
aI0
aI0
aI0
aI0
aI0
aI0
aa(lp40
I1
aI0
aI1
aI1
aF0.29998092927617304
aI1
aI1
aI0
aI0
aI0
aI0
aI0
aI0
aI600
aI0
aI0
aI0
aI0
aI0
aI0
aI0
aI0
aI0
aI0
aI0
aI0
aI0
aI0
aI0
aI0
aI0
aI0
aI0
aI0
aI0
aI0
aI0
aI0
aI1
aI0
aI0
aI0
aI0
aI0
aI0
aI0
aI0
aI0
aI0
aI0
aI0
aa(lp41
I1
aF0.555013148927839
aI1
aF0.15779967308059284
aI0
aI0
aI1
aI0
aI0
aI0
aI0
aI0
aI0
aI600
aI0
aI0
aI0
aI0
aI0
aI0
aI0
aI0
aI0
aI0
aI0
aI0
aI0
aI0
aI0
aI0
aI0
aI0
aI0
aI0
aI0
aI0
aI0
aI0
aI0
aI0
aI0
aI0
aI0
aI0
aI0
aI0
aI0
aI0
aI0
aI0
aI0
aa(lp42
I1
aI1
aI1
aI1
aF0.555013148927839
aI1
aI1
aI0
aI0
aI1
aI0
aI0
aI1
aI600
aI0
aI0
aI0
aI0
aI0
aI0
aI0
aI0
aI0
aI0
aI0
aI0
aI0
aI0
aI0
aI0
aI0
aI0
aI0
aI0
aI0
aI0
aI0
aI0
aI1
aI0
aI0
aI0
aI0
aI0
aI0
aI0
aI0
aI0
aI0
aI0
aI0
aa(lp43
I1
aI0
aI1
aI1
aF0.39497064239625734
aI1
aI1
aI0
aI0
aI0
aI0
aI1
aI0
aI600
aI0
aI0
aI0
aI0
aI0
aI0
aI0
aI0
aI0
aI0
aI0
aI0
aI0
aI0
aI0
aI0
aI0
aI0
aI0
aI0
aI0
aI0
aI0
aI0
aI1
aI0
aI0
aI0
aI0
aI0
aI0
aI0
aI0
aI0
aI0
aI0
aI0
aa(lp44
I1
aI0
aI1
aI1
aF0.12996240609844528
aI1
aI1
aI0
aI0
aI1
aI0
aI0
aI0
aI600
aI0
aI0
aI0
aI0
aI0
aI0
aI0
aI0
aI0
aI0
aI0
aI0
aI0
aI0
aI0
aI0
aI0
aI0
aI0
aI0
aI0
aI0
aI0
aI0
aI1
aI0
aI0
aI0
aI0
aI0
aI0
aI0
aI0
aI0
aI0
aI0
aI0
aa(lp45
I1
aI1
aF0.17393829957055215
aI1
aF0.2709217414774352
aI1
aI1
aI0
aI0
aI0
aI0
aI1
aI0
aI600
aI0
aI0
aI0
aI0
aI1
aI1
aI0
aI0
aI0
aI0
aI0
aI0
aI0
aI0
aI0
aI0
aI0
aI0
aI0
aI0
aI0
aI0
aI0
aI0
aI0
aI0
aI0
aI0
aI0
aI0
aI0
aI0
aI0
aI0
aI0
aI1
aI0
aa(lp46
I1
aI1
aI1
aF0.19587082446504103
aI0
aF0.17417843002138775
aI1
aI0
aI0
aI0
aI0
aI0
aI0
aI600
aI1
aI0
aI0
aI0
aI0
aI0
aI0
aI0
aI0
aI0
aI0
aI0
aI0
aI0
aI0
aI0
aI0
aI0
aI0
aI0
aI0
aI0
aI0
aI0
aI1
aI0
aI0
aI0
aI0
aI0
aI0
aI0
aI0
aI0
aI0
aI0
aI0
aa(lp47
I1
aI0
aI1
aI1
aF0.234869748029384
aI1
aI1
aI0
aI0
aI0
aI0
aI0
aI0
aI600
aI0
aI0
aI0
aI0
aI0
aI0
aI0
aI0
aI0
aI0
aI0
aI0
aI0
aI0
aI0
aI0
aI0
aI0
aI0
aI0
aI0
aI0
aI0
aI0
aI0
aI0
aI0
aI0
aI0
aI0
aI0
aI0
aI0
aI0
aI0
aI0
aI0
aa(lp48
I1
aI1
aI1
aF0.26317136141364156
aF0.39497064239625734
aF0.17417843002138775
aI1
aI0
aI0
aI1
aI0
aI0
aI1
aI600
aI1
aI0
aI0
aI0
aI0
aI0
aI0
aI0
aI0
aI0
aI0
aI0
aI0
aI0
aI0
aI0
aI0
aI0
aI0
aI0
aI0
aI0
aI0
aI0
aI1
aI0
aI0
aI0
aI0
aI0
aI0
aI0
aI0
aI0
aI0
aI0
aI0
aa(lp49
I1
aI1
aF0.17393829957055215
aF0.28136387185230444
aI0
aI0
aI1
aI0
aI0
aI0
aI0
aI0
aI0
aI600
aI0
aI0
aI0
aI0
aI0
aI0
aI0
aI0
aI0
aI0
aI0
aI0
aI0
aI0
aI0
aI0
aI0
aI0
aI0
aI0
aI0
aI0
aI0
aI0
aI0
aI0
aI0
aI0
aI0
aI0
aI0
aI0
aI0
aI0
aI0
aI0
aI0
aa(lp50
I1
aI1
aI1
aI1
aI0
aI1
aI1
aI0
aI0
aI0
aI0
aI0
aI0
aI600
aI0
aI0
aI0
aI0
aI0
aI0
aI0
aI0
aI0
aI0
aI0
aI0
aI0
aI0
aI0
aI0
aI0
aI0
aI0
aI0
aI0
aI0
aI0
aI0
aI0
aI0
aI0
aI0
aI0
aI0
aI0
aI0
aI0
aI0
aI0
aI0
aI0
aa(lp51
I1
aF0.09400894020119234
aI1
aI1
aF0.11147856481020386
aI1
aI1
aI0
aI0
aI0
aI1
aI0
aI0
aI600
aI0
aI1
aI0
aI0
aI0
aI0
aI0
aI0
aI0
aI0
aI0
aI0
aI0
aI0
aI0
aI0
aI0
aI0
aI0
aI0
aI0
aI0
aI0
aI0
aI1
aI0
aI0
aI0
aI0
aI0
aI0
aI0
aI0
aI0
aI0
aI0
aI0
aa(lp52
I1
aI1
aI1
aI1
aI1
aI1
aI1
aI0
aI0
aI0
aI0
aI0
aI1
aI600
aI1
aI0
aI0
aI0
aI0
aI0
aI0
aI0
aI0
aI0
aI0
aI0
aI0
aI0
aI0
aI0
aI0
aI0
aI0
aI0
aI0
aI0
aI0
aI0
aI1
aI0
aI0
aI0
aI0
aI0
aI0
aI0
aI0
aI0
aI0
aI0
aI0
aa(lp53
I1
aI1
aI1
aF0.28136387185230444
aI0
aI0
aI1
aI0
aI0
aI0
aI0
aI0
aI0
aI600
aI0
aI0
aI0
aI0
aI0
aI0
aI0
aI0
aI0
aI0
aI0
aI0
aI0
aI0
aI0
aI0
aI0
aI0
aI0
aI0
aI0
aI0
aI0
aI0
aI0
aI0
aI0
aI0
aI0
aI0
aI0
aI0
aI0
aI0
aI0
aI0
aI0
aa(lp54
Vhow much money did ellen spend for the 12 chairs she bought?\u000a
p55
aVhow many toes would 25 sloths have?\u000a
p56
aVhow long is the boaconstrictor?\u000a
p57
aVhow many heads of cabbage does albert have in all?\u000a
p58
aVhow far can she bike in 31 hours?\u000a
p59
aVat that rate, how far can she drive in 36 hours?\u000a
p60
aVhow many laps will he swim in 6 7 dayss?\u000a
p61
aVhow many apples does it take to make 504 pies?\u000a
p62
aVhow many hours did he work in these 4 days?\u000a
p63
aVhow far was the campground from their home?\u000a
p64
aVhow many miles would he drive in 8 hours?\u000a
p65
aVhow many points would you have after 3 perfect games in a row?\u000a
p66
aVhow many miles did he travel on his last trip?\u000a
p67
aVhow many ounces are in 33 cups?\u000a
p68
aVhow many cups of chocolate chips will be needed to make all the cookie recipes?\u000a
p69
aVhow many pounds does he weigh?\u000a
p70
aVhow far can she drive on 14 gallons of gas?\u000a
p71
aVif i maintained this pace for the 8 hours i walk, how many miles total will i walk?\u000a
p72
aVhow many minutes did it take me to walk 3 miles?\u000a
p73
aVhow many days are in 12 years?\u000a
p74
aVhow many elementary students are there altogether in lansing?\u000a
p75
aVhow many pieces of gum does robin have?\u000a
p76
aVhow many muffins did james bake?\u000a
p77
aVhow many cookies would each person get?\u000a
p78
aVif you want to read the same number of pages each night, how many would you have to read each night to finish in 10 days?\u000a
p79
aVhow many servings are in the whole box?\u000a
p80
aVhow many books are there in the box?\u000a
p81
aVhow many bags could she fill up?\u000a
p82
aVhow many planes can fit into it, end to end, if each plane is 40 feet long?\u000a
p83
aVhow many cakes can you make with 37 eggs?\u000a
p84
aVhow many cars are needed to get all 105 people to the movie?\u000a
p85
aVbaker to eat?\u000a
p86
aVhow many does each person get? \u000a
p87
aVhow long will it take her to run 26 miles?\u000a
p88
aVhow many students will be in each group?\u000a
p89
aVhow many boxes did they use?\u000a
p90
aVhow many would each get, if you share them equally?\u000a
p91
aV how many 5 dollars bills does  he have ?\u000a
p92
aVhow many hamburgers on average were sold each day ?\u000a
p93
aVhow many seashells will each friend get ?\u000a
p94
aVassuming that she worked the same amount of hours each day, how long did she work each day ?\u000a
p95
aV if the games are equally divided, how many soccer games are played a month ?\u000a
p96
aVif each classroom holds 30 students, how many classrooms are needed at the school?\u000a
p97
aV how many packs of crayons did nancy buy?\u000a
p98
aVif there are 43 students, and the candy is divided evenly, how many pieces will each student get?\u000a
p99
aVhow many crayon boxes does she need?\u000a
p100
aVif every box can contain 100 sheets, how many boxes does she need?\u000a
p101
aVif he wants to distribute the paper clips in 9 boxes, how many paper clips will each box contain?\u000a
p102
aVif she has 48 origami papers to give away to her 6 cousins, how many will each receive if she gives everyone the same number of origami papers?\u000a
p103
aVif she places it in boxes which can contain 9 magazines, how many boxes will she use?\u000a
p104
atp105
sS'*'
p106
((lp107
g27
ag28
ag29
ag30
ag31
ag32
ag33
ag34
ag35
ag36
ag37
ag38
ag39
ag40
ag41
ag42
ag43
ag44
ag45
ag46
ag47
ag48
ag49
ag50
ag51
ag52
ag53
a(lp108
g3
ag4
ag5
ag6
ag7
ag8
ag9
ag10
ag11
ag12
ag13
ag14
ag15
ag16
ag17
ag18
ag19
ag20
ag21
ag22
ag23
ag24
ag25
a(lp109
Vhow much money did ellen spend for the 12 chairs she bought?\u000a
p110
aVhow many toes would 25 sloths have?\u000a
p111
aVhow long is the boaconstrictor?\u000a
p112
aVhow many heads of cabbage does albert have in all?\u000a
p113
aVhow far can she bike in 31 hours?\u000a
p114
aVat that rate, how far can she drive in 36 hours?\u000a
p115
aVhow many laps will he swim in 6 7 dayss?\u000a
p116
aVhow many apples does it take to make 504 pies?\u000a
p117
aVhow many hours did he work in these 4 days?\u000a
p118
aVhow far was the campground from their home?\u000a
p119
aVhow many miles would he drive in 8 hours?\u000a
p120
aVhow many points would you have after 3 perfect games in a row?\u000a
p121
aVhow many miles did he travel on his last trip?\u000a
p122
aVhow many ounces are in 33 cups?\u000a
p123
aVhow many cups of chocolate chips will be needed to make all the cookie recipes?\u000a
p124
aVhow many pounds does he weigh?\u000a
p125
aVhow far can she drive on 14 gallons of gas?\u000a
p126
aVif i maintained this pace for the 8 hours i walk, how many miles total will i walk?\u000a
p127
aVhow many minutes did it take me to walk 3 miles?\u000a
p128
aVhow many days are in 12 years?\u000a
p129
aVhow many elementary students are there altogether in lansing?\u000a
p130
aVhow many pieces of gum does robin have?\u000a
p131
aVhow many muffins did james bake?\u000a
p132
aVhow many cookies would each person get?\u000a
p133
aVif you want to read the same number of pages each night, how many would you have to read each night to finish in 10 days?\u000a
p134
aVhow many servings are in the whole box?\u000a
p135
aVhow many books are there in the box?\u000a
p136
aVhow many bags could she fill up?\u000a
p137
aVhow many planes can fit into it, end to end, if each plane is 40 feet long?\u000a
p138
aVhow many cakes can you make with 37 eggs?\u000a
p139
aVhow many cars are needed to get all 105 people to the movie?\u000a
p140
aVbaker to eat?\u000a
p141
aVhow many does each person get? \u000a
p142
aVhow long will it take her to run 26 miles?\u000a
p143
aVhow many students will be in each group?\u000a
p144
aVhow many boxes did they use?\u000a
p145
aVhow many would each get, if you share them equally?\u000a
p146
aV how many 5 dollars bills does  he have ?\u000a
p147
aVhow many hamburgers on average were sold each day ?\u000a
p148
aVhow many seashells will each friend get ?\u000a
p149
aVassuming that she worked the same amount of hours each day, how long did she work each day ?\u000a
p150
aV if the games are equally divided, how many soccer games are played a month ?\u000a
p151
aVif each classroom holds 30 students, how many classrooms are needed at the school?\u000a
p152
aV how many packs of crayons did nancy buy?\u000a
p153
aVif there are 43 students, and the candy is divided evenly, how many pieces will each student get?\u000a
p154
aVhow many crayon boxes does she need?\u000a
p155
aVif every box can contain 100 sheets, how many boxes does she need?\u000a
p156
aVif he wants to distribute the paper clips in 9 boxes, how many paper clips will each box contain?\u000a
p157
aVif she has 48 origami papers to give away to her 6 cousins, how many will each receive if she gives everyone the same number of origami papers?\u000a
p158
aVif she places it in boxes which can contain 9 magazines, how many boxes will she use?\u000a
p159
atp160
s.